
pacemaker_c_implementation.elf:     file format elf32-littlenios2
pacemaker_c_implementation.elf
architecture: nios2:r1, flags 0x00000112:
EXEC_P, HAS_SYMS, D_PAGED
start address 0x00800244

Program Header:
    LOAD off    0x00001000 vaddr 0x00800000 paddr 0x00800000 align 2**12
         filesz 0x00000020 memsz 0x00000020 flags r-x
    LOAD off    0x00001020 vaddr 0x00800020 paddr 0x00800020 align 2**12
         filesz 0x0000e2f8 memsz 0x0000e2f8 flags r-x
    LOAD off    0x0000f318 vaddr 0x0080e318 paddr 0x0080ff70 align 2**12
         filesz 0x00001c58 memsz 0x00001c58 flags rw-
    LOAD off    0x00011bc8 vaddr 0x00811bc8 paddr 0x00811bc8 align 2**12
         filesz 0x00000000 memsz 0x00000170 flags rw-

Sections:
Idx Name          Size      VMA       LMA       File off  Algn
  0 .entry        00000020  00800000  00800000  00001000  2**5
                  CONTENTS, ALLOC, LOAD, READONLY, CODE
  1 .exceptions   00000224  00800020  00800020  00001020  2**2
                  CONTENTS, ALLOC, LOAD, READONLY, CODE
  2 .text         0000dbc8  00800244  00800244  00001244  2**2
                  CONTENTS, ALLOC, LOAD, READONLY, CODE
  3 .rodata       0000050c  0080de0c  0080de0c  0000ee0c  2**2
                  CONTENTS, ALLOC, LOAD, READONLY, DATA
  4 .rwdata       00001c58  0080e318  0080ff70  0000f318  2**2
                  CONTENTS, ALLOC, LOAD, DATA, SMALL_DATA
  5 .bss          00000170  00811bc8  00811bc8  00011bc8  2**2
                  ALLOC, SMALL_DATA
  6 .sdram        00000000  00811d38  00811d38  00010f70  2**0
                  CONTENTS
  7 .onchip_mem   00000000  01008000  01008000  00010f70  2**0
                  CONTENTS
  8 .comment      00000023  00000000  00000000  00010f70  2**0
                  CONTENTS, READONLY
  9 .debug_aranges 00000cf8  00000000  00000000  00010f98  2**3
                  CONTENTS, READONLY, DEBUGGING
 10 .debug_info   0001cfbd  00000000  00000000  00011c90  2**0
                  CONTENTS, READONLY, DEBUGGING
 11 .debug_abbrev 00007db1  00000000  00000000  0002ec4d  2**0
                  CONTENTS, READONLY, DEBUGGING
 12 .debug_line   00009de8  00000000  00000000  000369fe  2**0
                  CONTENTS, READONLY, DEBUGGING
 13 .debug_frame  00001f1c  00000000  00000000  000407e8  2**2
                  CONTENTS, READONLY, DEBUGGING
 14 .debug_str    00003a46  00000000  00000000  00042704  2**0
                  CONTENTS, READONLY, DEBUGGING
 15 .debug_loc    0000819d  00000000  00000000  0004614a  2**0
                  CONTENTS, READONLY, DEBUGGING
 16 .debug_alt_sim_info 00000060  00000000  00000000  0004e2e8  2**2
                  CONTENTS, READONLY, DEBUGGING
 17 .debug_ranges 00000d50  00000000  00000000  0004e348  2**3
                  CONTENTS, READONLY, DEBUGGING
 18 .thread_model 00000003  00000000  00000000  000523fd  2**0
                  CONTENTS, READONLY
 19 .cpu          00000003  00000000  00000000  00052400  2**0
                  CONTENTS, READONLY
 20 .qsys         00000001  00000000  00000000  00052403  2**0
                  CONTENTS, READONLY
 21 .simulation_enabled 00000001  00000000  00000000  00052404  2**0
                  CONTENTS, READONLY
 22 .stderr_dev   00000009  00000000  00000000  00052405  2**0
                  CONTENTS, READONLY
 23 .stdin_dev    00000009  00000000  00000000  0005240e  2**0
                  CONTENTS, READONLY
 24 .stdout_dev   00000009  00000000  00000000  00052417  2**0
                  CONTENTS, READONLY
 25 .sopc_system_name 0000000c  00000000  00000000  00052420  2**0
                  CONTENTS, READONLY
 26 .quartus_project_dir 00000030  00000000  00000000  0005242c  2**0
                  CONTENTS, READONLY
 27 .sopcinfo     0006b17b  00000000  00000000  0005245c  2**0
                  CONTENTS, READONLY
SYMBOL TABLE:
00800000 l    d  .entry	00000000 .entry
00800020 l    d  .exceptions	00000000 .exceptions
00800244 l    d  .text	00000000 .text
0080de0c l    d  .rodata	00000000 .rodata
0080e318 l    d  .rwdata	00000000 .rwdata
00811bc8 l    d  .bss	00000000 .bss
00811d38 l    d  .sdram	00000000 .sdram
01008000 l    d  .onchip_mem	00000000 .onchip_mem
00000000 l    d  .comment	00000000 .comment
00000000 l    d  .debug_aranges	00000000 .debug_aranges
00000000 l    d  .debug_info	00000000 .debug_info
00000000 l    d  .debug_abbrev	00000000 .debug_abbrev
00000000 l    d  .debug_line	00000000 .debug_line
00000000 l    d  .debug_frame	00000000 .debug_frame
00000000 l    d  .debug_str	00000000 .debug_str
00000000 l    d  .debug_loc	00000000 .debug_loc
00000000 l    d  .debug_alt_sim_info	00000000 .debug_alt_sim_info
00000000 l    d  .debug_ranges	00000000 .debug_ranges
00000000 l    df *ABS*	00000000 C:/Projects/University/303-Assignment/pacemaker_c_implementation_bsp//obj/HAL/src/crt0.o
0080028c l       .text	00000000 alt_after_alt_main
00000000 l    df *ABS*	00000000 alt_irq_handler.c
00000000 l    df *ABS*	00000000 alt_instruction_exception_entry.c
00000000 l    df *ABS*	00000000 buttons_test.c
00000000 l    df *ABS*	00000000 main.c
00000000 l    df *ABS*	00000000 sccharts.c
00000000 l    df *ABS*	00000000 switches.c
00000000 l    df *ABS*	00000000 uart_test.c
00000000 l    df *ABS*	00000000 adddf3.c
00000000 l    df *ABS*	00000000 gedf2.c
00000000 l    df *ABS*	00000000 ledf2.c
00000000 l    df *ABS*	00000000 subdf3.c
00000000 l    df *ABS*	00000000 floatsidf.c
00000000 l    df *ABS*	00000000 floatunsidf.c
00000000 l    df *ABS*	00000000 libgcc2.c
00000000 l    df *ABS*	00000000 libgcc2.c
00000000 l    df *ABS*	00000000 putchar.c
00000000 l    df *ABS*	00000000 puts.c
00000000 l    df *ABS*	00000000 strlen.c
00000000 l    df *ABS*	00000000 findfp.c
00806c50 l     F .text	00000008 __fp_unlock
00806c64 l     F .text	0000019c __sinit.part.1
00806e00 l     F .text	00000008 __fp_lock
00000000 l    df *ABS*	00000000 fvwrite.c
00000000 l    df *ABS*	00000000 fwalk.c
00000000 l    df *ABS*	00000000 impure.c
0080e318 l     O .rwdata	00000424 impure_data
00000000 l    df *ABS*	00000000 mallocr.c
00000000 l    df *ABS*	00000000 memchr.c
00000000 l    df *ABS*	00000000 memcpy.c
00000000 l    df *ABS*	00000000 memmove.c
00000000 l    df *ABS*	00000000 memset.c
00000000 l    df *ABS*	00000000 putc.c
00000000 l    df *ABS*	00000000 mallocr.c
00000000 l    df *ABS*	00000000 sbrkr.c
00000000 l    df *ABS*	00000000 stdio.c
00000000 l    df *ABS*	00000000 wbuf.c
00000000 l    df *ABS*	00000000 writer.c
00000000 l    df *ABS*	00000000 wsetup.c
00000000 l    df *ABS*	00000000 closer.c
00000000 l    df *ABS*	00000000 fclose.c
00000000 l    df *ABS*	00000000 fflush.c
00000000 l    df *ABS*	00000000 mallocr.c
00000000 l    df *ABS*	00000000 int_errno.c
00000000 l    df *ABS*	00000000 lseekr.c
00000000 l    df *ABS*	00000000 makebuf.c
00000000 l    df *ABS*	00000000 readr.c
00000000 l    df *ABS*	00000000 fstatr.c
00000000 l    df *ABS*	00000000 isattyr.c
00000000 l    df *ABS*	00000000 lib2-divmod.c
00000000 l    df *ABS*	00000000 alt_alarm_start.c
00000000 l    df *ABS*	00000000 alt_close.c
00809c98 l     F .text	0000003c alt_get_errno
00000000 l    df *ABS*	00000000 alt_dev.c
00809da4 l     F .text	0000002c alt_dev_null_write
00000000 l    df *ABS*	00000000 alt_errno.c
00000000 l    df *ABS*	00000000 alt_fstat.c
00809dd0 l     F .text	0000003c alt_get_errno
00000000 l    df *ABS*	00000000 alt_irq_register.c
00000000 l    df *ABS*	00000000 alt_irq_vars.c
00000000 l    df *ABS*	00000000 alt_isatty.c
0080a03c l     F .text	0000003c alt_get_errno
00000000 l    df *ABS*	00000000 alt_load.c
0080a11c l     F .text	00000068 alt_load_section
00000000 l    df *ABS*	00000000 alt_lseek.c
0080a208 l     F .text	0000003c alt_get_errno
00000000 l    df *ABS*	00000000 alt_main.c
00000000 l    df *ABS*	00000000 alt_malloc_lock.c
00000000 l    df *ABS*	00000000 alt_read.c
0080a3dc l     F .text	0000003c alt_get_errno
00000000 l    df *ABS*	00000000 alt_release_fd.c
00000000 l    df *ABS*	00000000 alt_sbrk.c
0080ff5c l     O .rwdata	00000004 heap_end
00000000 l    df *ABS*	00000000 alt_tick.c
00000000 l    df *ABS*	00000000 alt_write.c
0080a7cc l     F .text	0000003c alt_get_errno
00000000 l    df *ABS*	00000000 alt_sys_init.c
0080a900 l     F .text	00000034 alt_dev_reg
0080ecec l     O .rwdata	00001060 jtag_uart
0080fd4c l     O .rwdata	00000120 lcd
0080fe6c l     O .rwdata	000000c4 uart
00000000 l    df *ABS*	00000000 altera_avalon_jtag_uart_fd.c
00000000 l    df *ABS*	00000000 altera_avalon_jtag_uart_init.c
0080ac28 l     F .text	0000020c altera_avalon_jtag_uart_irq
0080ae34 l     F .text	000000a0 altera_avalon_jtag_uart_timeout
00000000 l    df *ABS*	00000000 altera_avalon_jtag_uart_ioctl.c
00000000 l    df *ABS*	00000000 altera_avalon_jtag_uart_read.c
00000000 l    df *ABS*	00000000 altera_avalon_jtag_uart_write.c
00000000 l    df *ABS*	00000000 altera_avalon_lcd_16207.c
0080ff68 l     O .rwdata	00000004 colstart
0080b46c l     F .text	000000b8 lcd_write_command
0080b524 l     F .text	000000d8 lcd_write_data
0080b5fc l     F .text	000000d0 lcd_clear_screen
0080b6cc l     F .text	000001ec lcd_repaint_screen
0080b8b8 l     F .text	000000cc lcd_scroll_up
0080b984 l     F .text	000002ac lcd_handle_escape
0080c108 l     F .text	000000ac alt_lcd_16207_timeout
00000000 l    df *ABS*	00000000 altera_avalon_lcd_16207_fd.c
00000000 l    df *ABS*	00000000 altera_avalon_timer_sc.c
0080c348 l     F .text	00000078 alt_avalon_timer_sc_irq
00000000 l    df *ABS*	00000000 altera_avalon_uart_fd.c
00000000 l    df *ABS*	00000000 altera_avalon_uart_init.c
0080c5f8 l     F .text	0000009c altera_avalon_uart_irq
0080c694 l     F .text	000000e4 altera_avalon_uart_rxirq
0080c778 l     F .text	00000148 altera_avalon_uart_txirq
00000000 l    df *ABS*	00000000 altera_avalon_uart_read.c
0080c914 l     F .text	0000003c alt_get_errno
00000000 l    df *ABS*	00000000 altera_avalon_uart_write.c
0080cb2c l     F .text	0000003c alt_get_errno
00000000 l    df *ABS*	00000000 alt_dcache_flush_all.c
00000000 l    df *ABS*	00000000 alt_dev_llist_insert.c
0080cd5c l     F .text	0000003c alt_get_errno
00000000 l    df *ABS*	00000000 alt_do_ctors.c
00000000 l    df *ABS*	00000000 alt_do_dtors.c
00000000 l    df *ABS*	00000000 alt_icache_flush_all.c
00000000 l    df *ABS*	00000000 alt_iic.c
00000000 l    df *ABS*	00000000 alt_iic_isr_register.c
00000000 l    df *ABS*	00000000 alt_io_redirect.c
0080d1d0 l     F .text	000000c4 alt_open_fd
00000000 l    df *ABS*	00000000 alt_open.c
0080d310 l     F .text	0000003c alt_get_errno
0080d34c l     F .text	000000c4 alt_file_locked
00000000 l    df *ABS*	00000000 alt_usleep.c
00000000 l    df *ABS*	00000000 altera_nios2_gen2_irq.c
00000000 l    df *ABS*	00000000 alt_busy_sleep.c
00000000 l    df *ABS*	00000000 alt_find_dev.c
00000000 l    df *ABS*	00000000 alt_find_file.c
00000000 l    df *ABS*	00000000 alt_get_fd.c
00000000 l    df *ABS*	00000000 alt_icache_flush.c
00000000 l    df *ABS*	00000000 atexit.c
00000000 l    df *ABS*	00000000 ctype_.c
0080e197 l     O .rodata	00000180 _ctype_b
00000000 l    df *ABS*	00000000 exit.c
00000000 l    df *ABS*	00000000 memcmp.c
00000000 l    df *ABS*	00000000 __atexit.c
00000000 l    df *ABS*	00000000 __call_atexit.c
00000000 l    df *ABS*	00000000 alt_exit.c
00811c0c g     O .bss	00000004 alt_instruction_exception_handler
00811bd6 g     O .bss	00000001 a_pace_led_timer_already_started
00806acc g     F .text	00000018 putchar
00809964 g     F .text	00000054 _isatty_r
0080a318 g     F .text	0000007c alt_main
00806ae4 g     F .text	000000c0 _puts_r
00811c38 g     O .bss	00000100 alt_irq
0080968c g     F .text	00000060 _lseek_r
0080ff70 g       *ABS*	00000000 __flash_rwdata_start
00811d38 g       *ABS*	00000000 __alt_heap_start
00808ae8 g     F .text	0000005c __sseek
00806fa0 g     F .text	00000010 __sinit
00808b4c g     F .text	00000140 __swbuf_r
00806e08 g     F .text	00000068 __sfmoreglue
0080a3b8 g     F .text	00000024 __malloc_unlock
00811bdc g     O .bss	00000004 a_timer_count
00801004 g     F .text	00000104 clear_sense_led_events
0080806c g     F .text	0000015c memmove
00806f88 g     F .text	00000018 _cleanup
00800290 g     F .text	000000fc buttons_interrupts_function
00805e10 g     F .text	000000dc .hidden __gtdf2
0080d594 g     F .text	00000024 altera_nios2_gen2_irq_init
00800000 g     F .entry	0000001c __reset
00811bd1 g     O .bss	00000001 ventricular_sense_paced
00800020 g       *ABS*	00000000 __flash_exceptions_start
00809908 g     F .text	0000005c _fstat_r
00811bf0 g     O .bss	00000004 errno
00808a64 g     F .text	00000008 __seofread
00811bfc g     O .bss	00000004 alt_argv
00817f30 g       *ABS*	00000000 _gp
0080d564 g     F .text	00000030 usleep
00805218 g     F .text	000001c0 reset
0080eb6c g     O .rwdata	00000180 alt_fd_list
00806ac4 g     F .text	00000008 _putchar_r
008003b4 g     F .text	00000028 v_pace_led_timer_isr_function
0080d710 g     F .text	00000090 alt_find_dev
00807f24 g     F .text	00000148 memcpy
00806c58 g     F .text	0000000c _cleanup_r
008068dc g     F .text	000000dc .hidden __floatsidf
0080d294 g     F .text	0000007c alt_io_redirect
00805eec g     F .text	000000f4 .hidden __ltdf2
0080de0c g       *ABS*	00000000 __DTOR_END__
00806ba4 g     F .text	00000014 puts
0080d9dc g     F .text	0000009c alt_exception_cause_generated_bad_addr
0080b02c g     F .text	0000021c altera_avalon_jtag_uart_read
00809ab0 g     F .text	00000064 .hidden __udivsi3
0080a078 g     F .text	000000a4 isatty
0080d94c g     F .text	00000090 alt_icache_flush
00800518 g     F .text	00000040 v_events_timer_isr_function
00811bec g     O .bss	00000004 __malloc_top_pad
00811bcf g     O .bss	00000001 ventricular_sense
00806ff0 g     F .text	000004bc __sfvwrite_r
008089bc g     F .text	00000054 _sbrk_r
0080038c g     F .text	00000028 a_pace_led_timer_isr_function
008098a8 g     F .text	00000060 _read_r
0080ff50 g     O .rwdata	00000004 alt_max_fd
00808eac g     F .text	000000f0 _fclose_r
00809228 g     F .text	00000030 fflush
00811be8 g     O .bss	00000004 __malloc_max_sbrked_mem
00809ebc g     F .text	00000180 alt_irq_register
00805564 g     F .text	000008ac .hidden __adddf3
0080a244 g     F .text	000000d4 lseek
00800404 g     F .text	00000028 v_sense_led_timer_isr_function
0080ff30 g     O .rwdata	00000004 _global_impure_ptr
00808458 g     F .text	00000564 _realloc_r
00811d38 g       *ABS*	00000000 __bss_end
0080d0e0 g     F .text	000000f0 alt_iic_isr_register
0080a6c4 g     F .text	00000108 alt_tick
008069b8 g     F .text	000000a8 .hidden __floatunsidf
0080c54c g     F .text	000000ac altera_avalon_uart_init
00806fc0 g     F .text	00000018 __fp_lock_all
0080d094 g     F .text	0000004c alt_ic_irq_enabled
0080a628 g     F .text	0000009c alt_alarm_stop
00811bd0 g     O .bss	00000001 atrial_sense_paced
00811bf4 g     O .bss	00000004 alt_irq_active
00811bc9 g     O .bss	00000001 implementation_mode
01008000 g       *ABS*	00000000 __alt_mem_onchip_mem
008000fc g     F .exceptions	000000d4 alt_irq_handler
0080eb44 g     O .rwdata	00000028 alt_dev_null
0080cd14 g     F .text	00000048 alt_dcache_flush_all
00811bce g     O .bss	00000001 atrial_sense
0080ff70 g       *ABS*	00000000 __ram_rwdata_end
0080ff48 g     O .rwdata	00000008 alt_dev_list
0080a808 g     F .text	000000f8 write
008082f0 g     F .text	000000a0 _putc_r
0080e318 g       *ABS*	00000000 __ram_rodata_end
00809e0c g     F .text	000000b0 fstat
00805eec g     F .text	000000f4 .hidden __ledf2
008003dc g     F .text	00000028 a_sense_led_timer_isr_function
00809b14 g     F .text	00000058 .hidden __umodsi3
00801108 g     F .text	000000a8 C_Mode_Pacemaker
00811d38 g       *ABS*	00000000 end
0080bc30 g     F .text	000004d8 altera_avalon_lcd_16207_write
00800e70 g     F .text	00000060 send_ventricular_event
0080cb68 g     F .text	000001ac altera_avalon_uart_write
0080ab68 g     F .text	000000c0 altera_avalon_jtag_uart_init
008001d0 g     F .exceptions	00000074 alt_instruction_exception_entry
0080de0c g       *ABS*	00000000 __CTOR_LIST__
01000000 g       *ABS*	00000000 __alt_stack_pointer
00811bc8 g     O .bss	00000001 pulse_mode
0080c3c0 g     F .text	0000007c alt_avalon_timer_sc_init
0080c49c g     F .text	00000060 altera_avalon_uart_write_fd
00806a60 g     F .text	00000064 .hidden __clzsi2
0080c4fc g     F .text	00000050 altera_avalon_uart_close_fd
0080b248 g     F .text	00000224 altera_avalon_jtag_uart_write
00806fb0 g     F .text	00000004 __sfp_lock_acquire
00807e40 g     F .text	000000e4 memchr
0080937c g     F .text	00000310 _free_r
00811be0 g     O .bss	00000004 v_timer_count
0080dc58 g     F .text	00000180 __call_exitprocs
0080ff38 g     O .rwdata	00000004 __malloc_sbrk_base
00800244 g     F .text	0000004c _start
008004d8 g     F .text	00000040 a_events_timer_isr_function
00811c04 g     O .bss	00000004 _alt_tick_rate
00811c08 g     O .bss	00000004 _alt_nticks
0080a418 g     F .text	000000fc read
0080a96c g     F .text	00000098 alt_sys_init
00800f00 g     F .text	00000104 clear_pace_led_events
0080db40 g     F .text	00000118 __register_exitproc
00811bcd g     O .bss	00000001 v_is_paced
0080aed4 g     F .text	00000068 altera_avalon_jtag_uart_close
0080e318 g       *ABS*	00000000 __ram_rwdata_start
0080de0c g       *ABS*	00000000 __ram_rodata_start
00811c10 g     O .bss	00000028 __malloc_current_mallinfo
0080aa04 g     F .text	00000060 altera_avalon_jtag_uart_read_fd
0080d8a8 g     F .text	000000a4 alt_get_fd
0080d5b8 g     F .text	00000158 alt_busy_sleep
00808e58 g     F .text	00000054 _close_r
0080dac4 g     F .text	0000007c memcmp
0080aac4 g     F .text	00000050 altera_avalon_jtag_uart_close_fd
00811d38 g       *ABS*	00000000 __alt_stack_base
0080ab14 g     F .text	00000054 altera_avalon_jtag_uart_ioctl_fd
00808d04 g     F .text	00000154 __swsetup_r
008053d8 g     F .text	0000018c tick
00806e70 g     F .text	00000118 __sfp
0080e73c g     O .rwdata	00000408 __malloc_av_
00806fbc g     F .text	00000004 __sinit_lock_release
00808a10 g     F .text	00000054 __sread
0080d7a0 g     F .text	00000108 alt_find_file
0080cd98 g     F .text	000000a4 alt_dev_llist_insert
0080a394 g     F .text	00000024 __malloc_lock
0080a578 g     F .text	000000b0 sbrk
008091cc g     F .text	0000005c _fflush_r
00811bca g     O .bss	00000001 atrial_event
00811bc8 g       *ABS*	00000000 __bss_start
008081c8 g     F .text	00000128 memset
00800598 g     F .text	00000878 main
00811c00 g     O .bss	00000004 alt_envp
00811be4 g     O .bss	00000004 __malloc_max_total_mem
0080aa64 g     F .text	00000060 altera_avalon_jtag_uart_write_fd
00808c8c g     F .text	00000018 __swbuf
0080c1b4 g     F .text	00000134 altera_avalon_lcd_16207_init
00808b44 g     F .text	00000008 __sclose
01000000 g       *ABS*	00000000 __alt_heap_limit
00808f9c g     F .text	00000014 fclose
00807634 g     F .text	0000080c _malloc_r
0080ff54 g     O .rwdata	00000004 alt_errno
008074ac g     F .text	000000c4 _fwalk
0080042c g     F .text	000000ac uart_read_isr_function
00808390 g     F .text	000000c8 putc
008099b8 g     F .text	00000084 .hidden __divsi3
00809258 g     F .text	00000124 _malloc_trim_r
0080de0c g       *ABS*	00000000 __CTOR_END__
00811bd5 g     O .bss	00000001 led_sense_ventricular_event
0080de0c g       *ABS*	00000000 __flash_rodata_start
0080de0c g       *ABS*	00000000 __DTOR_LIST__
0080a934 g     F .text	00000038 alt_irq_init
0080a514 g     F .text	00000064 alt_release_fd
0080df4b g     O .rodata	00000100 .hidden __clz_tab
0080da78 g     F .text	00000014 atexit
00808ca4 g     F .text	00000060 _write_r
00800ed0 g     F .text	00000030 clear_heart_flags
0080ff34 g     O .rwdata	00000004 _impure_ptr
00811bf8 g     O .bss	00000004 alt_argc
008011b0 g     F .text	00000020 SCCHARTS_Mode_Pacemaker
00808fb0 g     F .text	0000021c __sflush_r
0080ce9c g     F .text	00000060 _do_dtors
00800558 g     F .text	00000040 system_timer_isr_function
00800020 g       .exceptions	00000000 alt_irq_entry
00806fd8 g     F .text	00000018 __fp_unlock_all
0080c2e8 g     F .text	00000060 altera_avalon_lcd_16207_write_fd
0080ff40 g     O .rwdata	00000008 alt_fs_list
00800020 g       *ABS*	00000000 __ram_exceptions_start
0080cf30 g     F .text	00000050 alt_ic_isr_register
0080ff70 g       *ABS*	00000000 _edata
0080c43c g     F .text	00000060 altera_avalon_uart_read_fd
00811bcc g     O .bss	00000001 ventricular_event
00811d38 g       *ABS*	00000000 _end
00800244 g       *ABS*	00000000 __ram_exceptions_end
0080af3c g     F .text	000000f0 altera_avalon_jtag_uart_ioctl
0080d008 g     F .text	0000008c alt_ic_irq_disable
00808a6c g     F .text	0000007c __swrite
0080ff3c g     O .rwdata	00000004 __malloc_trim_threshold
0080da8c g     F .text	00000038 exit
00811bd2 g     O .bss	00000001 led_pace_atrial_event
00807570 g     F .text	000000c4 _fwalk_reent
00809a3c g     F .text	00000074 .hidden __modsi3
008011d0 g     F .text	00004048 logic
0080ff6c g     O .rwdata	00000004 __ctype_ptr__
00811bd4 g     O .bss	00000001 led_sense_atrial_event
01000000 g       *ABS*	00000000 __alt_data_end
00800020 g     F .exceptions	00000000 alt_exception
00806fb4 g     F .text	00000004 __sfp_lock_release
00800000 g       *ABS*	00000000 __alt_mem_sdram
0080e096 g     O .rodata	00000101 _ctype_
00811bcb g     O .bss	00000001 a_is_paced
0080c8c0 g     F .text	00000054 altera_avalon_uart_close
0080ddd8 g     F .text	00000034 _exit
00809b6c g     F .text	0000012c alt_alarm_start
008096ec g     F .text	000001bc __smakebuf_r
00806bb8 g     F .text	00000098 strlen
0080d410 g     F .text	00000154 open
00805e10 g     F .text	000000dc .hidden __gedf2
00811bd8 g     O .bss	00000001 a_sense_led_timer_already_started
0080cefc g     F .text	00000034 alt_icache_flush_all
0080ff58 g     O .rwdata	00000004 alt_priority_mask
0080cf80 g     F .text	00000088 alt_ic_irq_enable
00811bd9 g     O .bss	00000001 v_sense_led_timer_already_started
0080c950 g     F .text	000001dc altera_avalon_uart_read
00811bd3 g     O .bss	00000001 led_pace_ventricular_event
00805fe0 g     F .text	000008fc .hidden __subdf3
00811bd7 g     O .bss	00000001 v_pace_led_timer_already_started
00800e10 g     F .text	00000060 send_atrial_event
0080ff60 g     O .rwdata	00000008 alt_alarm_list
0080ce3c g     F .text	00000060 _do_ctors
00809cd4 g     F .text	000000d0 close
0080a184 g     F .text	00000084 alt_load
00806fb8 g     F .text	00000004 __sinit_lock_acquire



Disassembly of section .entry:

00800000 <__reset>:
#if NIOS2_ICACHE_SIZE > 0 && defined(ALT_ALLOW_CODE_AT_RESET) && (!defined(ALT_SIM_OPTIMIZE) || defined(NIOS2_ECC_PRESENT))
    /* Assume the instruction cache size is always a power of two. */
#if NIOS2_ICACHE_SIZE > 0x8000
    movhi r2, %hi(NIOS2_ICACHE_SIZE)
#else
    movui r2, NIOS2_ICACHE_SIZE
  800000:	00840014 	movui	r2,4096
#endif

0:
    initi r2
  800004:	1001483a 	initi	r2
    addi r2, r2, -NIOS2_ICACHE_LINE_SIZE
  800008:	10bff804 	addi	r2,r2,-32
    bgt r2, zero, 0b
  80000c:	00bffd16 	blt	zero,r2,800004 <__alt_mem_onchip_mem+0xff7f8004>
 * Jump to the _start entry point in the .text section if reset code
 * is allowed or if optimizing for RTL simulation.
 */
#if defined(ALT_ALLOW_CODE_AT_RESET) || defined(ALT_SIM_OPTIMIZE)
    /* Jump to the _start entry point in the .text section. */
    movhi r1, %hi(_start)
  800010:	00402034 	movhi	at,128
    ori r1, r1, %lo(_start)
  800014:	08409114 	ori	at,at,580
    jmp r1
  800018:	0800683a 	jmp	at
  80001c:	00000000 	call	0 <__alt_mem_sdram-0x800000>

Disassembly of section .exceptions:

00800020 <alt_exception>:

#else /* ALT_EXCEPTION_STACK disabled */
        /* 
         * Reserve space on normal stack for registers about to be pushed.
         */
        addi  sp, sp, -76
  800020:	deffed04 	addi	sp,sp,-76
         * documentation for details).
         *
         * Leave a gap in the stack frame at 4(sp) for the muldiv handler to
         * store zero into.
         */
        stw   ra,  0(sp)
  800024:	dfc00015 	stw	ra,0(sp)
        stw   r1,   8(sp)
  800028:	d8400215 	stw	at,8(sp)
        stw   r2,  12(sp)
  80002c:	d8800315 	stw	r2,12(sp)
        stw   r3,  16(sp)
  800030:	d8c00415 	stw	r3,16(sp)
        stw   r4,  20(sp)
  800034:	d9000515 	stw	r4,20(sp)
        stw   r5,  24(sp)
  800038:	d9400615 	stw	r5,24(sp)
        stw   r6,  28(sp)
  80003c:	d9800715 	stw	r6,28(sp)
        stw   r7,  32(sp)
  800040:	d9c00815 	stw	r7,32(sp)
        rdctl r5, estatus   /* Read early to avoid usage stall */
  800044:	000b307a 	rdctl	r5,estatus
        stw   r8,  36(sp)
  800048:	da000915 	stw	r8,36(sp)
        stw   r9,  40(sp)
  80004c:	da400a15 	stw	r9,40(sp)
        stw   r10, 44(sp)
  800050:	da800b15 	stw	r10,44(sp)
        stw   r11, 48(sp)
  800054:	dac00c15 	stw	r11,48(sp)
        stw   r12, 52(sp)
  800058:	db000d15 	stw	r12,52(sp)
        stw   r13, 56(sp)
  80005c:	db400e15 	stw	r13,56(sp)
        stw   r14, 60(sp)
  800060:	db800f15 	stw	r14,60(sp)
        stw   r15, 64(sp)
  800064:	dbc01015 	stw	r15,64(sp)
        /*
         * ea-4 contains the address of the instruction being executed
         * when the exception occured. For interrupt exceptions, we will
         * will be re-issue the isntruction. Store it in 72(sp)
         */
        stw   r5,  68(sp)  /* estatus */
  800068:	d9401115 	stw	r5,68(sp)
        addi  r15, ea, -4  /* instruction that caused exception */
  80006c:	ebffff04 	addi	r15,ea,-4
        stw   r15,  72(sp)
  800070:	dbc01215 	stw	r15,72(sp)
#else
        /*
         * Test to see if the exception was a software exception or caused 
         * by an external interrupt, and vector accordingly.
         */
        rdctl r4, ipending
  800074:	0009313a 	rdctl	r4,ipending
        andi  r2, r5, 1
  800078:	2880004c 	andi	r2,r5,1
        beq   r2, zero, .Lnot_irq
  80007c:	10000326 	beq	r2,zero,80008c <alt_exception+0x6c>
        beq   r4, zero, .Lnot_irq
  800080:	20000226 	beq	r4,zero,80008c <alt_exception+0x6c>
        /*
         * Now that all necessary registers have been preserved, call 
         * alt_irq_handler() to process the interrupts.
         */

        call alt_irq_handler
  800084:	08000fc0 	call	8000fc <alt_irq_handler>

        .section .exceptions.irqreturn, "xa"

        br    .Lexception_exit
  800088:	00000706 	br	8000a8 <alt_exception+0x88>
         * upon completion, so we write ea (address of instruction *after*
         * the one where the exception occured) into 72(sp). The actual
         * instruction that caused the exception is written in r2, which these
         * handlers will utilize.
         */
        stw ea, 72(sp) /* EA is PC+4 so will skip over instruction causing exception */
  80008c:	df401215 	stw	ea,72(sp)
.Lunknown_16bit:
        addi.n r4, r4, 2 /* Need PC+2 to skip over instruction causing exception */
        stw r4, 72(sp)

#else /* CDX is not Enabled and all instructions are 32bits */
        ldw r2, -4(ea) /* Instruction value that caused exception */
  800090:	e8bfff17 	ldw	r2,-4(ea)
         * debugger is present) or go into an infinite loop since the
         * handling behavior is undefined; in that case we will not return here.
         */

        /* Load exception-causing address as first argument (r4) */
        addi   r4, ea, -4
  800094:	e93fff04 	addi	r4,ea,-4

        /* Call the instruction-exception entry */
        call   alt_instruction_exception_entry
  800098:	08001d00 	call	8001d0 <alt_instruction_exception_entry>
         * instruction
         *
         * Return code was 0: Skip. The instruction after the exception is
         * already stored in 72(sp).
         */
        bne   r2, r0, .Lexception_exit
  80009c:	1000021e 	bne	r2,zero,8000a8 <alt_exception+0x88>

        /*
         * Otherwise, modify 72(sp) to re-issue the instruction that caused the
         * exception.
         */
        addi  r15, ea, -4  /* instruction that caused exception */
  8000a0:	ebffff04 	addi	r15,ea,-4
        stw   r15,  72(sp)
  8000a4:	dbc01215 	stw	r15,72(sp)
        /* 
         * Restore the saved registers, so that all general purpose registers 
         * have been restored to their state at the time the interrupt occured.
         */

        ldw   r5,  68(sp)
  8000a8:	d9401117 	ldw	r5,68(sp)
        ldw   ea,  72(sp)  /* This becomes the PC once eret is executed */
  8000ac:	df401217 	ldw	ea,72(sp)
        ldw   ra,   0(sp)
  8000b0:	dfc00017 	ldw	ra,0(sp)

        wrctl estatus, r5
  8000b4:	2801707a 	wrctl	estatus,r5

        ldw   r1,   8(sp)
  8000b8:	d8400217 	ldw	at,8(sp)
        ldw   r2,  12(sp)
  8000bc:	d8800317 	ldw	r2,12(sp)
        ldw   r3,  16(sp)
  8000c0:	d8c00417 	ldw	r3,16(sp)
        ldw   r4,  20(sp)
  8000c4:	d9000517 	ldw	r4,20(sp)
        ldw   r5,  24(sp)
  8000c8:	d9400617 	ldw	r5,24(sp)
        ldw   r6,  28(sp)
  8000cc:	d9800717 	ldw	r6,28(sp)
        ldw   r7,  32(sp)
  8000d0:	d9c00817 	ldw	r7,32(sp)

#if defined(ALT_EXCEPTION_STACK) && defined(ALT_STACK_CHECK)
        ldw   et, %gprel(alt_exception_old_stack_limit)(gp)
#endif

        ldw   r8,  36(sp)
  8000d4:	da000917 	ldw	r8,36(sp)
        ldw   r9,  40(sp)
  8000d8:	da400a17 	ldw	r9,40(sp)
        ldw   r10, 44(sp)
  8000dc:	da800b17 	ldw	r10,44(sp)
        ldw   r11, 48(sp)
  8000e0:	dac00c17 	ldw	r11,48(sp)
        ldw   r12, 52(sp)
  8000e4:	db000d17 	ldw	r12,52(sp)
        ldw   r13, 56(sp)
  8000e8:	db400e17 	ldw	r13,56(sp)
        ldw   r14, 60(sp)
  8000ec:	db800f17 	ldw	r14,60(sp)
        ldw   r15, 64(sp)
  8000f0:	dbc01017 	ldw	r15,64(sp)
        stw   et, %gprel(alt_stack_limit_value)(gp)
        stw   zero, %gprel(alt_exception_old_stack_limit)(gp)
#endif /* ALT_STACK_CHECK */
        ldw   sp,  76(sp)
#else /* ALT_EXCEPTION_STACK disabled */
        addi  sp, sp, 76
  8000f4:	dec01304 	addi	sp,sp,76

        /*
         * Return to the interrupted instruction.
         */

        eret
  8000f8:	ef80083a 	eret

008000fc <alt_irq_handler>:
 * instruction is present if the macro ALT_CI_INTERRUPT_VECTOR defined.
 */

void alt_irq_handler (void) __attribute__ ((section (".exceptions")));
void alt_irq_handler (void)
{
  8000fc:	defff904 	addi	sp,sp,-28
  800100:	dfc00615 	stw	ra,24(sp)
  800104:	df000515 	stw	fp,20(sp)
  800108:	df000504 	addi	fp,sp,20
  
  /*
   * Notify the operating system that we are at interrupt level.
   */ 
  
  ALT_OS_INT_ENTER();
  80010c:	0001883a 	nop
#ifndef NIOS2_EIC_PRESENT
static ALT_INLINE alt_u32 ALT_ALWAYS_INLINE alt_irq_pending (void)
{
  alt_u32 active;

  NIOS2_READ_IPENDING (active);
  800110:	0005313a 	rdctl	r2,ipending
  800114:	e0bffe15 	stw	r2,-8(fp)

  return active;
  800118:	e0bffe17 	ldw	r2,-8(fp)
   * Consider the case where the high priority interupt is asserted during
   * the interrupt entry sequence for a lower priority interrupt to see why
   * this is the case.
   */

  active = alt_irq_pending ();
  80011c:	e0bffb15 	stw	r2,-20(fp)

  do
  {
    i = 0;
  800120:	e03ffd15 	stw	zero,-12(fp)
    mask = 1;
  800124:	00800044 	movi	r2,1
  800128:	e0bffc15 	stw	r2,-16(fp)
     * called to clear the interrupt condition.
     */

    do
    {
      if (active & mask)
  80012c:	e0fffb17 	ldw	r3,-20(fp)
  800130:	e0bffc17 	ldw	r2,-16(fp)
  800134:	1884703a 	and	r2,r3,r2
  800138:	10001426 	beq	r2,zero,80018c <alt_irq_handler+0x90>
      { 
#ifdef ALT_ENHANCED_INTERRUPT_API_PRESENT
        alt_irq[i].handler(alt_irq[i].context); 
  80013c:	00802074 	movhi	r2,129
  800140:	10870e04 	addi	r2,r2,7224
  800144:	e0fffd17 	ldw	r3,-12(fp)
  800148:	180690fa 	slli	r3,r3,3
  80014c:	10c5883a 	add	r2,r2,r3
  800150:	10c00017 	ldw	r3,0(r2)
  800154:	00802074 	movhi	r2,129
  800158:	10870e04 	addi	r2,r2,7224
  80015c:	e13ffd17 	ldw	r4,-12(fp)
  800160:	200890fa 	slli	r4,r4,3
  800164:	1105883a 	add	r2,r2,r4
  800168:	10800104 	addi	r2,r2,4
  80016c:	10800017 	ldw	r2,0(r2)
  800170:	1009883a 	mov	r4,r2
  800174:	183ee83a 	callr	r3
#else
        alt_irq[i].handler(alt_irq[i].context, i); 
#endif
        break;
  800178:	0001883a 	nop
#ifndef NIOS2_EIC_PRESENT
static ALT_INLINE alt_u32 ALT_ALWAYS_INLINE alt_irq_pending (void)
{
  alt_u32 active;

  NIOS2_READ_IPENDING (active);
  80017c:	0005313a 	rdctl	r2,ipending
  800180:	e0bfff15 	stw	r2,-4(fp)

  return active;
  800184:	e0bfff17 	ldw	r2,-4(fp)
  800188:	00000706 	br	8001a8 <alt_irq_handler+0xac>
      }
      mask <<= 1;
  80018c:	e0bffc17 	ldw	r2,-16(fp)
  800190:	1085883a 	add	r2,r2,r2
  800194:	e0bffc15 	stw	r2,-16(fp)
      i++;
  800198:	e0bffd17 	ldw	r2,-12(fp)
  80019c:	10800044 	addi	r2,r2,1
  8001a0:	e0bffd15 	stw	r2,-12(fp)

    } while (1);
  8001a4:	003fe106 	br	80012c <__alt_mem_onchip_mem+0xff7f812c>

    active = alt_irq_pending ();
  8001a8:	e0bffb15 	stw	r2,-20(fp)
    
  } while (active);
  8001ac:	e0bffb17 	ldw	r2,-20(fp)
  8001b0:	103fdb1e 	bne	r2,zero,800120 <__alt_mem_onchip_mem+0xff7f8120>

  /*
   * Notify the operating system that interrupt processing is complete.
   */ 

  ALT_OS_INT_EXIT();
  8001b4:	0001883a 	nop
}
  8001b8:	0001883a 	nop
  8001bc:	e037883a 	mov	sp,fp
  8001c0:	dfc00117 	ldw	ra,4(sp)
  8001c4:	df000017 	ldw	fp,0(sp)
  8001c8:	dec00204 	addi	sp,sp,8
  8001cc:	f800283a 	ret

008001d0 <alt_instruction_exception_entry>:
 * that handler if it has been registered. Absent a handler, it will
 * break break or hang as discussed below.
 */
int 
alt_instruction_exception_entry (alt_u32 exception_pc)
{
  8001d0:	defffb04 	addi	sp,sp,-20
  8001d4:	dfc00415 	stw	ra,16(sp)
  8001d8:	df000315 	stw	fp,12(sp)
  8001dc:	df000304 	addi	fp,sp,12
  8001e0:	e13fff15 	stw	r4,-4(fp)
 * NIOS2_EXCEPTION_CAUSE_NOT_PRESENT. Your handling routine should
 * check the validity of the cause argument before proceeding.
 */
#ifdef NIOS2_HAS_EXTRA_EXCEPTION_INFO
  /* Get exception cause & "badaddr" */
  NIOS2_READ_EXCEPTION(cause);
  8001e4:	000531fa 	rdctl	r2,exception
  8001e8:	e0bffd15 	stw	r2,-12(fp)
  cause = ( (cause & NIOS2_EXCEPTION_REG_CAUSE_MASK) >>
  8001ec:	e0bffd17 	ldw	r2,-12(fp)
  8001f0:	10801f0c 	andi	r2,r2,124
  8001f4:	1004d0ba 	srli	r2,r2,2
  8001f8:	e0bffd15 	stw	r2,-12(fp)
              NIOS2_EXCEPTION_REG_CAUSE_OFST );

  NIOS2_READ_BADADDR(badaddr);
  8001fc:	0005333a 	rdctl	r2,badaddr
  800200:	e0bffe15 	stw	r2,-8(fp)
#else
  cause = NIOS2_EXCEPTION_CAUSE_NOT_PRESENT;
  badaddr = 0;
#endif /* NIOS2_HAS_EXTRA_EXCEPTION_INFO */

  if(alt_instruction_exception_handler) {
  800204:	d0a73717 	ldw	r2,-25380(gp)
  800208:	10000726 	beq	r2,zero,800228 <alt_instruction_exception_entry+0x58>
     * Call handler. Its return value indicates whether the exception-causing
     * instruction should be re-issued. The code that called us,
     * alt_eceptions_entry.S, will look at this value and adjust the ea
     * register as necessary
     */
    return alt_instruction_exception_handler(cause, exception_pc, badaddr);
  80020c:	d0a73717 	ldw	r2,-25380(gp)
  800210:	e0fffd17 	ldw	r3,-12(fp)
  800214:	e1bffe17 	ldw	r6,-8(fp)
  800218:	e17fff17 	ldw	r5,-4(fp)
  80021c:	1809883a 	mov	r4,r3
  800220:	103ee83a 	callr	r2
  800224:	00000206 	br	800230 <alt_instruction_exception_entry+0x60>
   *    (a peripheral which negates its interrupt output before its
   *    interrupt handler has been executed will cause spurious interrupts)
   */
  else {
#ifdef NIOS2_HAS_DEBUG_STUB
    NIOS2_BREAK();
  800228:	003da03a 	break	0
      ;
#endif /* NIOS2_HAS_DEBUG_STUB */
  }

  /* We should not get here. Remove compiler warning. */
  return NIOS2_EXCEPTION_RETURN_REISSUE_INST;
  80022c:	0005883a 	mov	r2,zero
}
  800230:	e037883a 	mov	sp,fp
  800234:	dfc00117 	ldw	ra,4(sp)
  800238:	df000017 	ldw	fp,0(sp)
  80023c:	dec00204 	addi	sp,sp,8
  800240:	f800283a 	ret

Disassembly of section .text:

00800244 <_start>:

    /* Assume the data cache size is always a power of two. */
#if NIOS2_DCACHE_SIZE > 0x8000
    movhi r2, %hi(NIOS2_DCACHE_SIZE)
#else
    movui r2, NIOS2_DCACHE_SIZE
  800244:	00820014 	movui	r2,2048
#endif

0:
    initd 0(r2)
  800248:	10000033 	initd	0(r2)
#ifdef NIOS2_ECC_PRESENT
    addi r2, r2, -4
#else
    addi r2, r2, -NIOS2_DCACHE_LINE_SIZE
  80024c:	10bff804 	addi	r2,r2,-32
#endif
    bgt r2, zero, 0b
  800250:	00bffd16 	blt	zero,r2,800248 <__alt_mem_onchip_mem+0xff7f8248>

    /*
     * Now that the caches are initialized, set up the stack pointer and global pointer.
     * The values provided by the linker are assumed to be correctly aligned.
     */
    movhi sp, %hi(__alt_stack_pointer)
  800254:	06c04034 	movhi	sp,256
    ori sp, sp, %lo(__alt_stack_pointer)
  800258:	dec00014 	ori	sp,sp,0
    movhi gp, %hi(_gp)
  80025c:	06802074 	movhi	gp,129
    ori gp, gp, %lo(_gp)
  800260:	d69fcc14 	ori	gp,gp,32560
 */
#ifndef ALT_SIM_OPTIMIZE
    /* Log that the BSS is about to be cleared. */
    ALT_LOG_PUTS(alt_log_msg_bss)

    movhi r2, %hi(__bss_start)
  800264:	00802074 	movhi	r2,129
    ori r2, r2, %lo(__bss_start)
  800268:	1086f214 	ori	r2,r2,7112

    movhi r3, %hi(__bss_end)
  80026c:	00c02074 	movhi	r3,129
    ori r3, r3, %lo(__bss_end)
  800270:	18c74e14 	ori	r3,r3,7480

    beq r2, r3, 1f
  800274:	10c00326 	beq	r2,r3,800284 <_start+0x40>

0:
    stw zero, (r2)
  800278:	10000015 	stw	zero,0(r2)
    addi r2, r2, 4
  80027c:	10800104 	addi	r2,r2,4
    bltu r2, r3, 0b
  800280:	10fffd36 	bltu	r2,r3,800278 <__alt_mem_onchip_mem+0xff7f8278>
     * section aren't defined until alt_load() has been called).
     */
    mov   et, zero
#endif

    call alt_load
  800284:	080a1840 	call	80a184 <alt_load>

    /* Log that alt_main is about to be called. */
    ALT_LOG_PUTS(alt_log_msg_alt_main)

    /* Call the C entry point. It should never return. */
    call alt_main
  800288:	080a3180 	call	80a318 <alt_main>

0080028c <alt_after_alt_main>:

    /* Wait in infinite loop in case alt_main does return. */
alt_after_alt_main:
    br alt_after_alt_main
  80028c:	003fff06 	br	80028c <__alt_mem_onchip_mem+0xff7f828c>

00800290 <buttons_interrupts_function>:

int a_timer_count = 0;
int v_timer_count = 0;

void buttons_interrupts_function(void* context, alt_u32 id)
{
  800290:	defffb04 	addi	sp,sp,-20
  800294:	dfc00415 	stw	ra,16(sp)
  800298:	df000315 	stw	fp,12(sp)
  80029c:	df000304 	addi	fp,sp,12
  8002a0:	e13ffe15 	stw	r4,-8(fp)
  8002a4:	e17fff15 	stw	r5,-4(fp)

	int* temp_button_value = (int*) context; // Cast the context before using it
  8002a8:	e0bffe17 	ldw	r2,-8(fp)
  8002ac:	e0bffd15 	stw	r2,-12(fp)
	(*temp_button_value) = IORD_ALTERA_AVALON_PIO_EDGE_CAP(KEYS_BASE);
  8002b0:	00804074 	movhi	r2,257
  8002b4:	10842b04 	addi	r2,r2,4268
  8002b8:	10c00037 	ldwio	r3,0(r2)
  8002bc:	e0bffd17 	ldw	r2,-12(fp)
  8002c0:	10c00015 	stw	r3,0(r2)

	// clear the edge capture register
	IOWR_ALTERA_AVALON_PIO_EDGE_CAP(KEYS_BASE, 0);
  8002c4:	0007883a 	mov	r3,zero
  8002c8:	00804074 	movhi	r2,257
  8002cc:	10842b04 	addi	r2,r2,4268
  8002d0:	10c00035 	stwio	r3,0(r2)

	// If we are NOT in button mode, we exit early.
	if (pulse_mode == UART_MODE) {
  8002d4:	d0a72603 	ldbu	r2,-25448(gp)
  8002d8:	1080005c 	xori	r2,r2,1
  8002dc:	10803fcc 	andi	r2,r2,255
  8002e0:	1000241e 	bne	r2,zero,800374 <buttons_interrupts_function+0xe4>
		return;
	}


	if ((*temp_button_value & (1 << KEY1))) {
  8002e4:	e0bffd17 	ldw	r2,-12(fp)
  8002e8:	10800017 	ldw	r2,0(r2)
  8002ec:	1080008c 	andi	r2,r2,2
  8002f0:	10000526 	beq	r2,zero,800308 <buttons_interrupts_function+0x78>
		//printf("KEY0 : ATRIAL EVENT!\n");
		send_atrial_event(true);
  8002f4:	01000044 	movi	r4,1
  8002f8:	0800e100 	call	800e10 <send_atrial_event>
		printf("Atrium Manually Paced!\n");
  8002fc:	01002074 	movhi	r4,129
  800300:	21378304 	addi	r4,r4,-8692
  800304:	0806ba40 	call	806ba4 <puts>
	}

	if ((*temp_button_value & (1 << KEY0))) {
  800308:	e0bffd17 	ldw	r2,-12(fp)
  80030c:	10800017 	ldw	r2,0(r2)
  800310:	1080004c 	andi	r2,r2,1
  800314:	10000c26 	beq	r2,zero,800348 <buttons_interrupts_function+0xb8>
		//printf("KEY1 : VENTRICULAR EVENT!\n");
		if (v_timer_count >= URI_VALUE) {
  800318:	d0a72c17 	ldw	r2,-25424(gp)
  80031c:	1080e110 	cmplti	r2,r2,900
  800320:	1000061e 	bne	r2,zero,80033c <buttons_interrupts_function+0xac>
			send_ventricular_event(true);
  800324:	01000044 	movi	r4,1
  800328:	0800e700 	call	800e70 <send_ventricular_event>
			printf("Ventricular Manually Paced!\n");
  80032c:	01002074 	movhi	r4,129
  800330:	21378904 	addi	r4,r4,-8668
  800334:	0806ba40 	call	806ba4 <puts>
  800338:	00000306 	br	800348 <buttons_interrupts_function+0xb8>
		} else {
			printf("URI_VALUE not over!\n");
  80033c:	01002074 	movhi	r4,129
  800340:	21379004 	addi	r4,r4,-8640
  800344:	0806ba40 	call	806ba4 <puts>
		}

	}

	if ((*temp_button_value & (1 << 2))) {
  800348:	e0bffd17 	ldw	r2,-12(fp)
  80034c:	10800017 	ldw	r2,0(r2)
  800350:	1080010c 	andi	r2,r2,4
  800354:	10000826 	beq	r2,zero,800378 <buttons_interrupts_function+0xe8>
		// reset leds -- DEBUGGING / CLEAR EVENTS
		atrial_event = false;
  800358:	d0272685 	stb	zero,-25446(gp)
		ventricular_event = false;
  80035c:	d0272705 	stb	zero,-25444(gp)
		IOWR_ALTERA_AVALON_PIO_DATA(LEDS_GREEN_BASE, 0);
  800360:	0007883a 	mov	r3,zero
  800364:	00804074 	movhi	r2,257
  800368:	10841c04 	addi	r2,r2,4208
  80036c:	10c00035 	stwio	r3,0(r2)
  800370:	00000106 	br	800378 <buttons_interrupts_function+0xe8>
	// clear the edge capture register
	IOWR_ALTERA_AVALON_PIO_EDGE_CAP(KEYS_BASE, 0);

	// If we are NOT in button mode, we exit early.
	if (pulse_mode == UART_MODE) {
		return;
  800374:	0001883a 	nop
		ventricular_event = false;
		IOWR_ALTERA_AVALON_PIO_DATA(LEDS_GREEN_BASE, 0);
	}

	//printf("button pressed: %i\n", *temp_button_value); DEBUGGING PURPOSES
}
  800378:	e037883a 	mov	sp,fp
  80037c:	dfc00117 	ldw	ra,4(sp)
  800380:	df000017 	ldw	fp,0(sp)
  800384:	dec00204 	addi	sp,sp,8
  800388:	f800283a 	ret

0080038c <a_pace_led_timer_isr_function>:

alt_u32 a_pace_led_timer_isr_function(void* context) {
  80038c:	defffe04 	addi	sp,sp,-8
  800390:	df000115 	stw	fp,4(sp)
  800394:	df000104 	addi	fp,sp,4
  800398:	e13fff15 	stw	r4,-4(fp)

	//IOWR_ALTERA_AVALON_PIO_DATA(LEDS_GREEN_BASE, 0);
	//int *led_time_count = (int*) context;
	led_pace_atrial_event = false;
  80039c:	d0272885 	stb	zero,-25438(gp)
	return LED_ON_MILLISECONDS;
  8003a0:	00800644 	movi	r2,25
}
  8003a4:	e037883a 	mov	sp,fp
  8003a8:	df000017 	ldw	fp,0(sp)
  8003ac:	dec00104 	addi	sp,sp,4
  8003b0:	f800283a 	ret

008003b4 <v_pace_led_timer_isr_function>:

alt_u32 v_pace_led_timer_isr_function(void* context) {
  8003b4:	defffe04 	addi	sp,sp,-8
  8003b8:	df000115 	stw	fp,4(sp)
  8003bc:	df000104 	addi	fp,sp,4
  8003c0:	e13fff15 	stw	r4,-4(fp)

	//IOWR_ALTERA_AVALON_PIO_DATA(LEDS_GREEN_BASE, 0);
	//int *(led_time_count) = (int*) context;
	led_pace_ventricular_event = false;
  8003c4:	d02728c5 	stb	zero,-25437(gp)
	return LED_ON_MILLISECONDS;
  8003c8:	00800644 	movi	r2,25
}
  8003cc:	e037883a 	mov	sp,fp
  8003d0:	df000017 	ldw	fp,0(sp)
  8003d4:	dec00104 	addi	sp,sp,4
  8003d8:	f800283a 	ret

008003dc <a_sense_led_timer_isr_function>:

alt_u32 a_sense_led_timer_isr_function(void* contxet) {
  8003dc:	defffe04 	addi	sp,sp,-8
  8003e0:	df000115 	stw	fp,4(sp)
  8003e4:	df000104 	addi	fp,sp,4
  8003e8:	e13fff15 	stw	r4,-4(fp)
	led_sense_atrial_event = false;
  8003ec:	d0272905 	stb	zero,-25436(gp)
	return LED_ON_MILLISECONDS;
  8003f0:	00800644 	movi	r2,25
}
  8003f4:	e037883a 	mov	sp,fp
  8003f8:	df000017 	ldw	fp,0(sp)
  8003fc:	dec00104 	addi	sp,sp,4
  800400:	f800283a 	ret

00800404 <v_sense_led_timer_isr_function>:

alt_u32 v_sense_led_timer_isr_function(void* contxet) {
  800404:	defffe04 	addi	sp,sp,-8
  800408:	df000115 	stw	fp,4(sp)
  80040c:	df000104 	addi	fp,sp,4
  800410:	e13fff15 	stw	r4,-4(fp)
	led_sense_ventricular_event = false;
  800414:	d0272945 	stb	zero,-25435(gp)
	return LED_ON_MILLISECONDS;
  800418:	00800644 	movi	r2,25
}
  80041c:	e037883a 	mov	sp,fp
  800420:	df000017 	ldw	fp,0(sp)
  800424:	dec00104 	addi	sp,sp,4
  800428:	f800283a 	ret

0080042c <uart_read_isr_function>:

void uart_read_isr_function(void* context, alt_u32 id)
{
  80042c:	defffb04 	addi	sp,sp,-20
  800430:	dfc00415 	stw	ra,16(sp)
  800434:	df000315 	stw	fp,12(sp)
  800438:	df000304 	addi	fp,sp,12
  80043c:	e13ffe15 	stw	r4,-8(fp)
  800440:	e17fff15 	stw	r5,-4(fp)
	// if we are NOT in UART MODE then exit early;

	char temp;
	temp = IORD_ALTERA_AVALON_UART_RXDATA(UART_BASE);
  800444:	00804074 	movhi	r2,257
  800448:	10841004 	addi	r2,r2,4160
  80044c:	10800037 	ldwio	r2,0(r2)
  800450:	e0bffd05 	stb	r2,-12(fp)

	if (pulse_mode == BUTTON_MODE) {
  800454:	d0a72603 	ldbu	r2,-25448(gp)
  800458:	10803fcc 	andi	r2,r2,255
  80045c:	10000d26 	beq	r2,zero,800494 <uart_read_isr_function+0x68>

		if (atrial_event) {
  800460:	d0a72683 	ldbu	r2,-25446(gp)
  800464:	10803fcc 	andi	r2,r2,255
  800468:	10000326 	beq	r2,zero,800478 <uart_read_isr_function+0x4c>
			printf("Atrial Transmitted to UART!\n");
  80046c:	01002074 	movhi	r4,129
  800470:	21379504 	addi	r4,r4,-8620
  800474:	0806ba40 	call	806ba4 <puts>
		}

		if (ventricular_event) {
  800478:	d0a72703 	ldbu	r2,-25444(gp)
  80047c:	10803fcc 	andi	r2,r2,255
  800480:	10000f26 	beq	r2,zero,8004c0 <uart_read_isr_function+0x94>
			printf("Ventricular Transmitted to UART!\n");
  800484:	01002074 	movhi	r4,129
  800488:	21379c04 	addi	r4,r4,-8592
  80048c:	0806ba40 	call	806ba4 <puts>
		}
		return;
  800490:	00000b06 	br	8004c0 <uart_read_isr_function+0x94>
	}

	if (temp == 'A') {
  800494:	e0bffd07 	ldb	r2,-12(fp)
  800498:	10801058 	cmpnei	r2,r2,65
  80049c:	1000021e 	bne	r2,zero,8004a8 <uart_read_isr_function+0x7c>
		send_atrial_event(false);
  8004a0:	0009883a 	mov	r4,zero
  8004a4:	0800e100 	call	800e10 <send_atrial_event>
	}
	if (temp == 'V') {
  8004a8:	e0bffd07 	ldb	r2,-12(fp)
  8004ac:	10801598 	cmpnei	r2,r2,86
  8004b0:	1000041e 	bne	r2,zero,8004c4 <uart_read_isr_function+0x98>
		send_ventricular_event(false);
  8004b4:	0009883a 	mov	r4,zero
  8004b8:	0800e700 	call	800e70 <send_ventricular_event>
  8004bc:	00000106 	br	8004c4 <uart_read_isr_function+0x98>
		}

		if (ventricular_event) {
			printf("Ventricular Transmitted to UART!\n");
		}
		return;
  8004c0:	0001883a 	nop
	}
	if (temp == 'V') {
		send_ventricular_event(false);
	}
	//printf("UART read: %c\n", temp);
}
  8004c4:	e037883a 	mov	sp,fp
  8004c8:	dfc00117 	ldw	ra,4(sp)
  8004cc:	df000017 	ldw	fp,0(sp)
  8004d0:	dec00204 	addi	sp,sp,8
  8004d4:	f800283a 	ret

008004d8 <a_events_timer_isr_function>:

alt_u32 a_events_timer_isr_function(void* context) {
  8004d8:	defffd04 	addi	sp,sp,-12
  8004dc:	df000215 	stw	fp,8(sp)
  8004e0:	df000204 	addi	fp,sp,8
  8004e4:	e13fff15 	stw	r4,-4(fp)
	int *a_timer_count =(int*) context;
  8004e8:	e0bfff17 	ldw	r2,-4(fp)
  8004ec:	e0bffe15 	stw	r2,-8(fp)
	(*a_timer_count)++;
  8004f0:	e0bffe17 	ldw	r2,-8(fp)
  8004f4:	10800017 	ldw	r2,0(r2)
  8004f8:	10c00044 	addi	r3,r2,1
  8004fc:	e0bffe17 	ldw	r2,-8(fp)
  800500:	10c00015 	stw	r3,0(r2)
	return 1; // return 1 millisecond
  800504:	00800044 	movi	r2,1
}
  800508:	e037883a 	mov	sp,fp
  80050c:	df000017 	ldw	fp,0(sp)
  800510:	dec00104 	addi	sp,sp,4
  800514:	f800283a 	ret

00800518 <v_events_timer_isr_function>:

alt_u32 v_events_timer_isr_function(void* context) {
  800518:	defffd04 	addi	sp,sp,-12
  80051c:	df000215 	stw	fp,8(sp)
  800520:	df000204 	addi	fp,sp,8
  800524:	e13fff15 	stw	r4,-4(fp)
	int *v_timer_count =(int*) context;
  800528:	e0bfff17 	ldw	r2,-4(fp)
  80052c:	e0bffe15 	stw	r2,-8(fp)
	(*v_timer_count)++;
  800530:	e0bffe17 	ldw	r2,-8(fp)
  800534:	10800017 	ldw	r2,0(r2)
  800538:	10c00044 	addi	r3,r2,1
  80053c:	e0bffe17 	ldw	r2,-8(fp)
  800540:	10c00015 	stw	r3,0(r2)
	return 1; // return 1 millisecond
  800544:	00800044 	movi	r2,1
}
  800548:	e037883a 	mov	sp,fp
  80054c:	df000017 	ldw	fp,0(sp)
  800550:	dec00104 	addi	sp,sp,4
  800554:	f800283a 	ret

00800558 <system_timer_isr_function>:

alt_u32 system_timer_isr_function(void* context) {
  800558:	defffd04 	addi	sp,sp,-12
  80055c:	df000215 	stw	fp,8(sp)
  800560:	df000204 	addi	fp,sp,8
  800564:	e13fff15 	stw	r4,-4(fp)
	int *system_timer_count = (int* ) context;
  800568:	e0bfff17 	ldw	r2,-4(fp)
  80056c:	e0bffe15 	stw	r2,-8(fp)
	(*system_timer_count)++;
  800570:	e0bffe17 	ldw	r2,-8(fp)
  800574:	10800017 	ldw	r2,0(r2)
  800578:	10c00044 	addi	r3,r2,1
  80057c:	e0bffe17 	ldw	r2,-8(fp)
  800580:	10c00015 	stw	r3,0(r2)
	return 1; // return 1 millisecond
  800584:	00800044 	movi	r2,1
}
  800588:	e037883a 	mov	sp,fp
  80058c:	df000017 	ldw	fp,0(sp)
  800590:	dec00104 	addi	sp,sp,4
  800594:	f800283a 	ret

00800598 <main>:

int main(void)
{
  800598:	deff7804 	addi	sp,sp,-544
  80059c:	dfc08715 	stw	ra,540(sp)
  8005a0:	df008615 	stw	fp,536(sp)
  8005a4:	df008604 	addi	fp,sp,536
	printf("Starting.\n");
  8005a8:	01002074 	movhi	r4,129
  8005ac:	2137a504 	addi	r4,r4,-8556
  8005b0:	0806ba40 	call	806ba4 <puts>

	unsigned int switch_value = 0;
  8005b4:	e03f8715 	stw	zero,-484(fp)
	int button_value = 1;
  8005b8:	00800044 	movi	r2,1
  8005bc:	e0bf8f15 	stw	r2,-452(fp)
	void* button_context = (void*) &button_value; // Cast before passing context to isr
  8005c0:	e0bf8f04 	addi	r2,fp,-452
  8005c4:	e0bf8815 	stw	r2,-480(fp)

	unsigned int system_time = 0;
  8005c8:	e03f7a15 	stw	zero,-536(fp)
	unsigned int previous_system_time = 0;
  8005cc:	e03f8915 	stw	zero,-476(fp)
	TickData data;
	reset(&data);
  8005d0:	e0bf9004 	addi	r2,fp,-448
  8005d4:	1009883a 	mov	r4,r2
  8005d8:	08052180 	call	805218 <reset>

	//========= 	  INTERRUPTS  	   =========

	// Clear edge capture register
	IOWR_ALTERA_AVALON_PIO_EDGE_CAP(KEYS_BASE, 0);
  8005dc:	0007883a 	mov	r3,zero
  8005e0:	00804074 	movhi	r2,257
  8005e4:	10842b04 	addi	r2,r2,4268
  8005e8:	10c00035 	stwio	r3,0(r2)

	// Enable interrupts
	IOWR_ALTERA_AVALON_PIO_IRQ_MASK(KEYS_BASE, 0x7);
  8005ec:	00c001c4 	movi	r3,7
  8005f0:	00804074 	movhi	r2,257
  8005f4:	10842a04 	addi	r2,r2,4264
  8005f8:	10c00035 	stwio	r3,0(r2)
	IOWR_ALTERA_AVALON_PIO_IRQ_MASK(UART_BASE, 0x0080);
  8005fc:	00c02004 	movi	r3,128
  800600:	00804074 	movhi	r2,257
  800604:	10841204 	addi	r2,r2,4168
  800608:	10c00035 	stwio	r3,0(r2)

	// Register the isr
	alt_irq_register(KEYS_IRQ, button_context, buttons_interrupts_function);
  80060c:	01802034 	movhi	r6,128
  800610:	3180a404 	addi	r6,r6,656
  800614:	e17f8817 	ldw	r5,-480(fp)
  800618:	01000104 	movi	r4,4
  80061c:	0809ebc0 	call	809ebc <alt_irq_register>
	alt_irq_register(UART_IRQ, NULL, uart_read_isr_function);
  800620:	01802034 	movhi	r6,128
  800624:	31810b04 	addi	r6,r6,1068
  800628:	000b883a 	mov	r5,zero
  80062c:	0009883a 	mov	r4,zero
  800630:	0809ebc0 	call	809ebc <alt_irq_register>

	printf("Interrupts Initialised.\n");
  800634:	01002074 	movhi	r4,129
  800638:	2137a804 	addi	r4,r4,-8544
  80063c:	0806ba40 	call	806ba4 <puts>
	//========= 	  INTERRUPTS  	   =========
	//========= 	    TIMERS  	   =========
	// Lets LEDs stay on for 500 seconds.
	alt_alarm a_pace_led_timer;
	alt_alarm_start(&a_pace_led_timer, LED_ON_MILLISECONDS, a_pace_led_timer_isr_function, NULL);
  800640:	e0bfd504 	addi	r2,fp,-172
  800644:	000f883a 	mov	r7,zero
  800648:	01802034 	movhi	r6,128
  80064c:	3180e304 	addi	r6,r6,908
  800650:	01400644 	movi	r5,25
  800654:	1009883a 	mov	r4,r2
  800658:	0809b6c0 	call	809b6c <alt_alarm_start>

	alt_alarm v_pace_led_timer;
	alt_alarm_start(&v_pace_led_timer, LED_ON_MILLISECONDS, v_pace_led_timer_isr_function, NULL);
  80065c:	e0bfdb04 	addi	r2,fp,-148
  800660:	000f883a 	mov	r7,zero
  800664:	01802034 	movhi	r6,128
  800668:	3180ed04 	addi	r6,r6,948
  80066c:	01400644 	movi	r5,25
  800670:	1009883a 	mov	r4,r2
  800674:	0809b6c0 	call	809b6c <alt_alarm_start>

	alt_alarm a_sense_led_timer;
	alt_alarm_start(&a_sense_led_timer, LED_ON_MILLISECONDS, a_sense_led_timer_isr_function, NULL);
  800678:	e0bfe104 	addi	r2,fp,-124
  80067c:	000f883a 	mov	r7,zero
  800680:	01802034 	movhi	r6,128
  800684:	3180f704 	addi	r6,r6,988
  800688:	01400644 	movi	r5,25
  80068c:	1009883a 	mov	r4,r2
  800690:	0809b6c0 	call	809b6c <alt_alarm_start>

	alt_alarm v_sense_led_timer;
	alt_alarm_start(&v_sense_led_timer, LED_ON_MILLISECONDS, v_sense_led_timer_isr_function, NULL);
  800694:	e0bfe704 	addi	r2,fp,-100
  800698:	000f883a 	mov	r7,zero
  80069c:	01802034 	movhi	r6,128
  8006a0:	31810104 	addi	r6,r6,1028
  8006a4:	01400644 	movi	r5,25
  8006a8:	1009883a 	mov	r4,r2
  8006ac:	0809b6c0 	call	809b6c <alt_alarm_start>

	alt_alarm system_timer;
	int system_timer_count = 0;
  8006b0:	e03ff315 	stw	zero,-52(fp)
	void *system_timer_context = (void*) &system_timer_count;
  8006b4:	e0bff304 	addi	r2,fp,-52
  8006b8:	e0bf8a15 	stw	r2,-472(fp)
	alt_alarm_start(&system_timer, 1, system_timer_isr_function, system_timer_context);
  8006bc:	e0bfed04 	addi	r2,fp,-76
  8006c0:	e1ff8a17 	ldw	r7,-472(fp)
  8006c4:	01802034 	movhi	r6,128
  8006c8:	31815604 	addi	r6,r6,1368
  8006cc:	01400044 	movi	r5,1
  8006d0:	1009883a 	mov	r4,r2
  8006d4:	0809b6c0 	call	809b6c <alt_alarm_start>

	alt_alarm a_events_timer;
	//int a_timer_count = 0;
	void *a_events_timer_context = (void*) &a_timer_count;
  8006d8:	d0a72b04 	addi	r2,gp,-25428
  8006dc:	e0bf8b15 	stw	r2,-468(fp)
	alt_alarm_start(&a_events_timer, 1, a_events_timer_isr_function, a_events_timer_context);
  8006e0:	e0bff404 	addi	r2,fp,-48
  8006e4:	e1ff8b17 	ldw	r7,-468(fp)
  8006e8:	01802034 	movhi	r6,128
  8006ec:	31813604 	addi	r6,r6,1240
  8006f0:	01400044 	movi	r5,1
  8006f4:	1009883a 	mov	r4,r2
  8006f8:	0809b6c0 	call	809b6c <alt_alarm_start>

	alt_alarm v_events_timer;
	//int v_timer_count = 0;
	void *v_events_timer_context = (void*) &v_timer_count;
  8006fc:	d0a72c04 	addi	r2,gp,-25424
  800700:	e0bf8c15 	stw	r2,-464(fp)
	alt_alarm_start(&v_events_timer, 1, v_events_timer_isr_function, v_events_timer_context);
  800704:	e0bffa04 	addi	r2,fp,-24
  800708:	e1ff8c17 	ldw	r7,-464(fp)
  80070c:	01802034 	movhi	r6,128
  800710:	31814604 	addi	r6,r6,1304
  800714:	01400044 	movi	r5,1
  800718:	1009883a 	mov	r4,r2
  80071c:	0809b6c0 	call	809b6c <alt_alarm_start>


	//========= 	    TIMERS  	   =========
	printf("Timers Initialised.\n");
  800720:	01002074 	movhi	r4,129
  800724:	2137ae04 	addi	r4,r4,-8520
  800728:	0806ba40 	call	806ba4 <puts>

	printf("Entering Loop.\n");
  80072c:	01002074 	movhi	r4,129
  800730:	2137b304 	addi	r4,r4,-8500
  800734:	0806ba40 	call	806ba4 <puts>
	while(1) {
		previous_system_time = system_time;
  800738:	e0bf7a17 	ldw	r2,-536(fp)
  80073c:	e0bf8915 	stw	r2,-476(fp)
		system_time = system_timer_count;
  800740:	e0bff317 	ldw	r2,-52(fp)
  800744:	e0bf7a15 	stw	r2,-536(fp)
		data.AS = 0;
  800748:	e03fad05 	stb	zero,-332(fp)
		data.VS = 0;
  80074c:	e03fad45 	stb	zero,-331(fp)
		data.deltaT = system_time - previous_system_time;
  800750:	e0ff7a17 	ldw	r3,-536(fp)
  800754:	e0bf8917 	ldw	r2,-476(fp)
  800758:	1885c83a 	sub	r2,r3,r2
  80075c:	1009883a 	mov	r4,r2
  800760:	08069b80 	call	8069b8 <__floatunsidf>
  800764:	1009883a 	mov	r4,r2
  800768:	180b883a 	mov	r5,r3
  80076c:	e13fa915 	stw	r4,-348(fp)
  800770:	e17faa15 	stw	r5,-344(fp)
		//tick(&data);

		// Get switch state from switch peripheral (returns a binary)
		switch_value = IORD_ALTERA_AVALON_PIO_DATA(SWITCHES_BASE);
  800774:	00804074 	movhi	r2,257
  800778:	10842404 	addi	r2,r2,4240
  80077c:	10800037 	ldwio	r2,0(r2)
  800780:	e0bf8715 	stw	r2,-484(fp)


		// ========= 	  PULSE MODES 	  =========
		if (switch_value & (1 << PULSE_MODE_SWITCH)) {
  800784:	e0bf8717 	ldw	r2,-484(fp)
  800788:	1080004c 	andi	r2,r2,1
  80078c:	10000326 	beq	r2,zero,80079c <main+0x204>
			// SW0 is ON
			pulse_mode = BUTTON_MODE;
  800790:	00800044 	movi	r2,1
  800794:	d0a72605 	stb	r2,-25448(gp)
  800798:	00000406 	br	8007ac <main+0x214>
		} else if (!(switch_value & (1 << PULSE_MODE_SWITCH))) {
  80079c:	e0bf8717 	ldw	r2,-484(fp)
  8007a0:	1080004c 	andi	r2,r2,1
  8007a4:	1000011e 	bne	r2,zero,8007ac <main+0x214>
			// SW0 is OFF
			pulse_mode = UART_MODE;
  8007a8:	d0272605 	stb	zero,-25448(gp)
		}
		// ========= 	  PULSE MODES 	  =========

		// ========= IMPLEMENTATION MODES =========
		if (switch_value & (1 << IMPLEMENTAITON_MODE_SWITCH)) {
  8007ac:	e0bf8717 	ldw	r2,-484(fp)
  8007b0:	1080008c 	andi	r2,r2,2
  8007b4:	10000326 	beq	r2,zero,8007c4 <main+0x22c>
			// SW1 is ON
			implementation_mode = SCCHARTS_MODE;
  8007b8:	00800044 	movi	r2,1
  8007bc:	d0a72645 	stb	r2,-25447(gp)
  8007c0:	00000406 	br	8007d4 <main+0x23c>
		} else if (!(switch_value & (1 << IMPLEMENTAITON_MODE_SWITCH))) {
  8007c4:	e0bf8717 	ldw	r2,-484(fp)
  8007c8:	1080008c 	andi	r2,r2,2
  8007cc:	1000011e 	bne	r2,zero,8007d4 <main+0x23c>
			// SW1 is OFF
			implementation_mode = C_MODE;
  8007d0:	d0272645 	stb	zero,-25447(gp)
		}
		// ========= IMPLEMENTATION MODES =========

		// CHECK FOR ATRIAL AND VENTRICULAR EVENTS -- SENSING
		// CHECK FOR ATRIAL AND VENTRICULAR EVENTS -- SENSING
		if (atrial_event) {
  8007d4:	d0a72683 	ldbu	r2,-25446(gp)
  8007d8:	10803fcc 	andi	r2,r2,255
  8007dc:	10002d26 	beq	r2,zero,800894 <main+0x2fc>
			printf("\n");
  8007e0:	01000284 	movi	r4,10
  8007e4:	0806acc0 	call	806acc <putchar>
			atrial_event = false; // COULD BE A PROBLEM?
  8007e8:	d0272685 	stb	zero,-25446(gp)
			// If we are in C_Mode, restart timer
			if (implementation_mode == C_MODE) {
  8007ec:	d0a72643 	ldbu	r2,-25447(gp)
  8007f0:	1080005c 	xori	r2,r2,1
  8007f4:	10803fcc 	andi	r2,r2,255
  8007f8:	10000826 	beq	r2,zero,80081c <main+0x284>
				if (v_timer_count >= PVARP_VALUE) {
  8007fc:	d0a72c17 	ldw	r2,-25424(gp)
  800800:	10800c90 	cmplti	r2,r2,50
  800804:	1000111e 	bne	r2,zero,80084c <main+0x2b4>
					atrial_sense = true;
  800808:	00800044 	movi	r2,1
  80080c:	d0a72785 	stb	r2,-25442(gp)
					ventricular_sense = false;
  800810:	d02727c5 	stb	zero,-25441(gp)
					a_timer_count = 0;
  800814:	d0272b15 	stw	zero,-25428(gp)
  800818:	00000c06 	br	80084c <main+0x2b4>
				}
			} else if (implementation_mode == SCCHARTS_MODE) {
  80081c:	d0a72643 	ldbu	r2,-25447(gp)
  800820:	10803fcc 	andi	r2,r2,255
  800824:	10000926 	beq	r2,zero,80084c <main+0x2b4>
				SCCHARTS_Mode_Pacemaker();
  800828:	08011b00 	call	8011b0 <SCCHARTS_Mode_Pacemaker>
				if (!a_is_paced) {
  80082c:	d0a726c3 	ldbu	r2,-25445(gp)
  800830:	1080005c 	xori	r2,r2,1
  800834:	10803fcc 	andi	r2,r2,255
  800838:	10000326 	beq	r2,zero,800848 <main+0x2b0>
					data.AS = 1;
  80083c:	00800044 	movi	r2,1
  800840:	e0bfad05 	stb	r2,-332(fp)
  800844:	00000106 	br	80084c <main+0x2b4>
				} else {
					data.AS = 0;
  800848:	e03fad05 	stb	zero,-332(fp)
				}
			}

			if (a_is_paced) {
  80084c:	d0a726c3 	ldbu	r2,-25445(gp)
  800850:	10803fcc 	andi	r2,r2,255
  800854:	10000826 	beq	r2,zero,800878 <main+0x2e0>
				led_pace_atrial_event = true;
  800858:	00800044 	movi	r2,1
  80085c:	d0a72885 	stb	r2,-25438(gp)
				atrial_sense_paced = true;
  800860:	00800044 	movi	r2,1
  800864:	d0a72805 	stb	r2,-25440(gp)
				printf("Atrial Sensed! - Paced!\n");
  800868:	01002074 	movhi	r4,129
  80086c:	2137b704 	addi	r4,r4,-8484
  800870:	0806ba40 	call	806ba4 <puts>
  800874:	00000606 	br	800890 <main+0x2f8>
			} else {
				led_sense_atrial_event = true;
  800878:	00800044 	movi	r2,1
  80087c:	d0a72905 	stb	r2,-25436(gp)
				atrial_sense_paced = false;
  800880:	d0272805 	stb	zero,-25440(gp)
				printf("Atrial Sensed! - Not Paced\n");
  800884:	01002074 	movhi	r4,129
  800888:	2137bd04 	addi	r4,r4,-8460
  80088c:	0806ba40 	call	806ba4 <puts>
			}

			//atrial_sense = true;

			a_is_paced = false;
  800890:	d02726c5 	stb	zero,-25445(gp)
		}

		if (ventricular_event) {
  800894:	d0a72703 	ldbu	r2,-25444(gp)
  800898:	10803fcc 	andi	r2,r2,255
  80089c:	10003626 	beq	r2,zero,800978 <main+0x3e0>
			ventricular_event = false;
  8008a0:	d0272705 	stb	zero,-25444(gp)

			// do stuff
			// If we are in C_Mode, restart timer
			if (implementation_mode == C_MODE) {
  8008a4:	d0a72643 	ldbu	r2,-25447(gp)
  8008a8:	1080005c 	xori	r2,r2,1
  8008ac:	10803fcc 	andi	r2,r2,255
  8008b0:	10000d26 	beq	r2,zero,8008e8 <main+0x350>
				// Reset timer if v is sensed after VRP
				if (v_timer_count >= VRP_VALUE) {
  8008b4:	d0a72c17 	ldw	r2,-25424(gp)
  8008b8:	10802590 	cmplti	r2,r2,150
  8008bc:	1000041e 	bne	r2,zero,8008d0 <main+0x338>
					ventricular_sense = true;
  8008c0:	00800044 	movi	r2,1
  8008c4:	d0a727c5 	stb	r2,-25441(gp)
					atrial_sense = false;
  8008c8:	d0272785 	stb	zero,-25442(gp)
					v_timer_count = 0;
  8008cc:	d0272c15 	stw	zero,-25424(gp)
				}
				if (v_timer_count >= URI_VALUE) {
  8008d0:	d0a72c17 	ldw	r2,-25424(gp)
  8008d4:	1080e110 	cmplti	r2,r2,900
  8008d8:	10000f1e 	bne	r2,zero,800918 <main+0x380>
					ventricular_sense = true;
  8008dc:	00800044 	movi	r2,1
  8008e0:	d0a727c5 	stb	r2,-25441(gp)
  8008e4:	00000c06 	br	800918 <main+0x380>
				}
			} else if (implementation_mode == SCCHARTS_MODE) {
  8008e8:	d0a72643 	ldbu	r2,-25447(gp)
  8008ec:	10803fcc 	andi	r2,r2,255
  8008f0:	10000926 	beq	r2,zero,800918 <main+0x380>
				if (!v_is_paced) {
  8008f4:	d0a72743 	ldbu	r2,-25443(gp)
  8008f8:	1080005c 	xori	r2,r2,1
  8008fc:	10803fcc 	andi	r2,r2,255
  800900:	10000326 	beq	r2,zero,800910 <main+0x378>
					data.VS = 1;
  800904:	00800044 	movi	r2,1
  800908:	e0bfad45 	stb	r2,-331(fp)
  80090c:	00000106 	br	800914 <main+0x37c>
				}
				else {
					data.VS = 0;
  800910:	e03fad45 	stb	zero,-331(fp)
				}
				SCCHARTS_Mode_Pacemaker();
  800914:	08011b00 	call	8011b0 <SCCHARTS_Mode_Pacemaker>
			}

			if (v_is_paced) {
  800918:	d0a72743 	ldbu	r2,-25443(gp)
  80091c:	10803fcc 	andi	r2,r2,255
  800920:	10000826 	beq	r2,zero,800944 <main+0x3ac>
				led_pace_ventricular_event = true;
  800924:	00800044 	movi	r2,1
  800928:	d0a728c5 	stb	r2,-25437(gp)
				ventricular_sense_paced = true;
  80092c:	00800044 	movi	r2,1
  800930:	d0a72845 	stb	r2,-25439(gp)
				printf("Ventricle Sensed! -- Paced\n");
  800934:	01002074 	movhi	r4,129
  800938:	2137c404 	addi	r4,r4,-8432
  80093c:	0806ba40 	call	806ba4 <puts>
  800940:	00000606 	br	80095c <main+0x3c4>
			} else {
				led_sense_ventricular_event = true;
  800944:	00800044 	movi	r2,1
  800948:	d0a72945 	stb	r2,-25435(gp)
				ventricular_sense_paced = false;
  80094c:	d0272845 	stb	zero,-25439(gp)
				printf("Ventricle Sensed! -- Not Paced\n");
  800950:	01002074 	movhi	r4,129
  800954:	2137cb04 	addi	r4,r4,-8404
  800958:	0806ba40 	call	806ba4 <puts>
			}


			if (!ventricular_sense) {
  80095c:	d0a727c3 	ldbu	r2,-25441(gp)
  800960:	1080005c 	xori	r2,r2,1
  800964:	10803fcc 	andi	r2,r2,255
  800968:	10000226 	beq	r2,zero,800974 <main+0x3dc>
				led_pace_ventricular_event = false;
  80096c:	d02728c5 	stb	zero,-25437(gp)
				led_sense_ventricular_event = false;
  800970:	d0272945 	stb	zero,-25435(gp)
			}


			v_is_paced = false;
  800974:	d0272745 	stb	zero,-25443(gp)

		// IMPLEMENTATION
		// IMPLEMENTATION


		if (implementation_mode == C_MODE) {
  800978:	d0a72643 	ldbu	r2,-25447(gp)
  80097c:	1080005c 	xori	r2,r2,1
  800980:	10803fcc 	andi	r2,r2,255
  800984:	10000626 	beq	r2,zero,8009a0 <main+0x408>
			if (v_timer_count >= LRI_VALUE) {
				ventricular_sense = false;
			}
			*/

			C_Mode_Pacemaker(a_timer_count, v_timer_count);
  800988:	d0a72b17 	ldw	r2,-25428(gp)
  80098c:	d0e72c17 	ldw	r3,-25424(gp)
  800990:	180b883a 	mov	r5,r3
  800994:	1009883a 	mov	r4,r2
  800998:	08011080 	call	801108 <C_Mode_Pacemaker>
  80099c:	00001906 	br	800a04 <main+0x46c>
			//atrial_sense_paced = false;
			//ventricular_sense_paced = false;

		} else if (implementation_mode == SCCHARTS_MODE) {
  8009a0:	d0a72643 	ldbu	r2,-25447(gp)
  8009a4:	10803fcc 	andi	r2,r2,255
  8009a8:	10001626 	beq	r2,zero,800a04 <main+0x46c>
			tick(&data);
  8009ac:	e0bf9004 	addi	r2,fp,-448
  8009b0:	1009883a 	mov	r4,r2
  8009b4:	08053d80 	call	8053d8 <tick>

			int a_test = data.AP;
  8009b8:	e0bfad83 	ldbu	r2,-330(fp)
  8009bc:	10803fcc 	andi	r2,r2,255
  8009c0:	1080201c 	xori	r2,r2,128
  8009c4:	10bfe004 	addi	r2,r2,-128
  8009c8:	e0bf8d15 	stw	r2,-460(fp)
			int v_test = data.VP;
  8009cc:	e0bfadc3 	ldbu	r2,-329(fp)
  8009d0:	10803fcc 	andi	r2,r2,255
  8009d4:	1080201c 	xori	r2,r2,128
  8009d8:	10bfe004 	addi	r2,r2,-128
  8009dc:	e0bf8e15 	stw	r2,-456(fp)

			if (a_test) {
  8009e0:	e0bf8d17 	ldw	r2,-460(fp)
  8009e4:	10000226 	beq	r2,zero,8009f0 <main+0x458>
				send_atrial_event(true);
  8009e8:	01000044 	movi	r4,1
  8009ec:	0800e100 	call	800e10 <send_atrial_event>
			}
			if (v_test) {
  8009f0:	e0bf8e17 	ldw	r2,-456(fp)
  8009f4:	10000226 	beq	r2,zero,800a00 <main+0x468>
				send_ventricular_event(true);
  8009f8:	01000044 	movi	r4,1
  8009fc:	0800e700 	call	800e70 <send_ventricular_event>
			}
			SCCHARTS_Mode_Pacemaker();
  800a00:	08011b00 	call	8011b0 <SCCHARTS_Mode_Pacemaker>
		// IMPLEMENTATION


		// PACE LEDS == PACE LEDS == PACE LEDS == PACE LEDS ==
		// PACE LEDS == PACE LEDS == PACE LEDS == PACE LEDS ==
		if (led_pace_atrial_event) {
  800a04:	d0a72883 	ldbu	r2,-25438(gp)
  800a08:	10803fcc 	andi	r2,r2,255
  800a0c:	10003e26 	beq	r2,zero,800b08 <main+0x570>
			if (!a_pace_led_timer_already_started) {
  800a10:	d0a72983 	ldbu	r2,-25434(gp)
  800a14:	1080005c 	xori	r2,r2,1
  800a18:	10803fcc 	andi	r2,r2,255
  800a1c:	10000c26 	beq	r2,zero,800a50 <main+0x4b8>
				alt_alarm_stop(&a_pace_led_timer);
  800a20:	e0bfd504 	addi	r2,fp,-172
  800a24:	1009883a 	mov	r4,r2
  800a28:	080a6280 	call	80a628 <alt_alarm_stop>
				alt_alarm_start(&a_pace_led_timer, LED_ON_MILLISECONDS, a_pace_led_timer_isr_function, NULL);
  800a2c:	e0bfd504 	addi	r2,fp,-172
  800a30:	000f883a 	mov	r7,zero
  800a34:	01802034 	movhi	r6,128
  800a38:	3180e304 	addi	r6,r6,908
  800a3c:	01400644 	movi	r5,25
  800a40:	1009883a 	mov	r4,r2
  800a44:	0809b6c0 	call	809b6c <alt_alarm_start>
				a_pace_led_timer_already_started = true;
  800a48:	00800044 	movi	r2,1
  800a4c:	d0a72985 	stb	r2,-25434(gp)
			}
			int led_value = IORD_ALTERA_AVALON_PIO_DATA(LEDS_GREEN_BASE);
  800a50:	00804074 	movhi	r2,257
  800a54:	10841c04 	addi	r2,r2,4208
  800a58:	10800037 	ldwio	r2,0(r2)
  800a5c:	e0bf7b15 	stw	r2,-532(fp)

			if (implementation_mode == C_MODE) {
  800a60:	d0a72643 	ldbu	r2,-25447(gp)
  800a64:	1080005c 	xori	r2,r2,1
  800a68:	10803fcc 	andi	r2,r2,255
  800a6c:	10001026 	beq	r2,zero,800ab0 <main+0x518>
				// SET ALL BITS UP FROM LEDG4 TO LEDG7
				for (int i = LEDG4; i < LEDG7 + 1; i++) {
  800a70:	00800104 	movi	r2,4
  800a74:	e0bf7c15 	stw	r2,-528(fp)
  800a78:	00000906 	br	800aa0 <main+0x508>
					led_value = led_value |= (1<<i);
  800a7c:	00c00044 	movi	r3,1
  800a80:	e0bf7c17 	ldw	r2,-528(fp)
  800a84:	1884983a 	sll	r2,r3,r2
  800a88:	e0ff7b17 	ldw	r3,-532(fp)
  800a8c:	1884b03a 	or	r2,r3,r2
  800a90:	e0bf7b15 	stw	r2,-532(fp)
			}
			int led_value = IORD_ALTERA_AVALON_PIO_DATA(LEDS_GREEN_BASE);

			if (implementation_mode == C_MODE) {
				// SET ALL BITS UP FROM LEDG4 TO LEDG7
				for (int i = LEDG4; i < LEDG7 + 1; i++) {
  800a94:	e0bf7c17 	ldw	r2,-528(fp)
  800a98:	10800044 	addi	r2,r2,1
  800a9c:	e0bf7c15 	stw	r2,-528(fp)
  800aa0:	e0bf7c17 	ldw	r2,-528(fp)
  800aa4:	10800210 	cmplti	r2,r2,8
  800aa8:	103ff41e 	bne	r2,zero,800a7c <__alt_mem_onchip_mem+0xff7f8a7c>
  800aac:	00001206 	br	800af8 <main+0x560>
					led_value = led_value |= (1<<i);
				}
			} else if (implementation_mode == SCCHARTS_MODE) {
  800ab0:	d0a72643 	ldbu	r2,-25447(gp)
  800ab4:	10803fcc 	andi	r2,r2,255
  800ab8:	10000f26 	beq	r2,zero,800af8 <main+0x560>
				for (int i = LEDG4; i < LEDG7 + 1; i += 2) {
  800abc:	00800104 	movi	r2,4
  800ac0:	e0bf7d15 	stw	r2,-524(fp)
  800ac4:	00000906 	br	800aec <main+0x554>
					led_value = led_value |= (1<<i);
  800ac8:	00c00044 	movi	r3,1
  800acc:	e0bf7d17 	ldw	r2,-524(fp)
  800ad0:	1884983a 	sll	r2,r3,r2
  800ad4:	e0ff7b17 	ldw	r3,-532(fp)
  800ad8:	1884b03a 	or	r2,r3,r2
  800adc:	e0bf7b15 	stw	r2,-532(fp)
				// SET ALL BITS UP FROM LEDG4 TO LEDG7
				for (int i = LEDG4; i < LEDG7 + 1; i++) {
					led_value = led_value |= (1<<i);
				}
			} else if (implementation_mode == SCCHARTS_MODE) {
				for (int i = LEDG4; i < LEDG7 + 1; i += 2) {
  800ae0:	e0bf7d17 	ldw	r2,-524(fp)
  800ae4:	10800084 	addi	r2,r2,2
  800ae8:	e0bf7d15 	stw	r2,-524(fp)
  800aec:	e0bf7d17 	ldw	r2,-524(fp)
  800af0:	10800210 	cmplti	r2,r2,8
  800af4:	103ff41e 	bne	r2,zero,800ac8 <__alt_mem_onchip_mem+0xff7f8ac8>
					led_value = led_value |= (1<<i);
				}
			}

			IOWR_ALTERA_AVALON_PIO_DATA(LEDS_GREEN_BASE, led_value);
  800af8:	00804074 	movhi	r2,257
  800afc:	10841c04 	addi	r2,r2,4208
  800b00:	e0ff7b17 	ldw	r3,-532(fp)
  800b04:	10c00035 	stwio	r3,0(r2)

		}

		if (led_pace_ventricular_event) {
  800b08:	d0a728c3 	ldbu	r2,-25437(gp)
  800b0c:	10803fcc 	andi	r2,r2,255
  800b10:	10003c26 	beq	r2,zero,800c04 <main+0x66c>
			if (!v_pace_led_timer_already_started) {
  800b14:	d0a729c3 	ldbu	r2,-25433(gp)
  800b18:	1080005c 	xori	r2,r2,1
  800b1c:	10803fcc 	andi	r2,r2,255
  800b20:	10000c26 	beq	r2,zero,800b54 <main+0x5bc>
				alt_alarm_stop(&v_pace_led_timer);
  800b24:	e0bfdb04 	addi	r2,fp,-148
  800b28:	1009883a 	mov	r4,r2
  800b2c:	080a6280 	call	80a628 <alt_alarm_stop>
				alt_alarm_start(&v_pace_led_timer, LED_ON_MILLISECONDS, v_pace_led_timer_isr_function, NULL);
  800b30:	e0bfdb04 	addi	r2,fp,-148
  800b34:	000f883a 	mov	r7,zero
  800b38:	01802034 	movhi	r6,128
  800b3c:	3180ed04 	addi	r6,r6,948
  800b40:	01400644 	movi	r5,25
  800b44:	1009883a 	mov	r4,r2
  800b48:	0809b6c0 	call	809b6c <alt_alarm_start>
				v_pace_led_timer_already_started = true;
  800b4c:	00800044 	movi	r2,1
  800b50:	d0a729c5 	stb	r2,-25433(gp)
			}
			int led_value = IORD_ALTERA_AVALON_PIO_DATA(LEDS_GREEN_BASE);
  800b54:	00804074 	movhi	r2,257
  800b58:	10841c04 	addi	r2,r2,4208
  800b5c:	10800037 	ldwio	r2,0(r2)
  800b60:	e0bf7e15 	stw	r2,-520(fp)

			if (implementation_mode == C_MODE) {
  800b64:	d0a72643 	ldbu	r2,-25447(gp)
  800b68:	1080005c 	xori	r2,r2,1
  800b6c:	10803fcc 	andi	r2,r2,255
  800b70:	10000f26 	beq	r2,zero,800bb0 <main+0x618>
				// SET ALL BITS UP FROM LEDG0 TO LEDG3
				for (int i = LEDG0; i < LEDG3 + 1; i++) {
  800b74:	e03f7f15 	stw	zero,-516(fp)
  800b78:	00000906 	br	800ba0 <main+0x608>
					led_value = led_value |= (1<<i);
  800b7c:	00c00044 	movi	r3,1
  800b80:	e0bf7f17 	ldw	r2,-516(fp)
  800b84:	1884983a 	sll	r2,r3,r2
  800b88:	e0ff7e17 	ldw	r3,-520(fp)
  800b8c:	1884b03a 	or	r2,r3,r2
  800b90:	e0bf7e15 	stw	r2,-520(fp)
			}
			int led_value = IORD_ALTERA_AVALON_PIO_DATA(LEDS_GREEN_BASE);

			if (implementation_mode == C_MODE) {
				// SET ALL BITS UP FROM LEDG0 TO LEDG3
				for (int i = LEDG0; i < LEDG3 + 1; i++) {
  800b94:	e0bf7f17 	ldw	r2,-516(fp)
  800b98:	10800044 	addi	r2,r2,1
  800b9c:	e0bf7f15 	stw	r2,-516(fp)
  800ba0:	e0bf7f17 	ldw	r2,-516(fp)
  800ba4:	10800110 	cmplti	r2,r2,4
  800ba8:	103ff41e 	bne	r2,zero,800b7c <__alt_mem_onchip_mem+0xff7f8b7c>
  800bac:	00001106 	br	800bf4 <main+0x65c>
					led_value = led_value |= (1<<i);
				}
			} else if (implementation_mode == SCCHARTS_MODE) {
  800bb0:	d0a72643 	ldbu	r2,-25447(gp)
  800bb4:	10803fcc 	andi	r2,r2,255
  800bb8:	10000e26 	beq	r2,zero,800bf4 <main+0x65c>
				for (int i = LEDG0; i < LEDG3 + 1; i += 2) {
  800bbc:	e03f8015 	stw	zero,-512(fp)
  800bc0:	00000906 	br	800be8 <main+0x650>
					led_value = led_value |= (1<<i);
  800bc4:	00c00044 	movi	r3,1
  800bc8:	e0bf8017 	ldw	r2,-512(fp)
  800bcc:	1884983a 	sll	r2,r3,r2
  800bd0:	e0ff7e17 	ldw	r3,-520(fp)
  800bd4:	1884b03a 	or	r2,r3,r2
  800bd8:	e0bf7e15 	stw	r2,-520(fp)
				// SET ALL BITS UP FROM LEDG0 TO LEDG3
				for (int i = LEDG0; i < LEDG3 + 1; i++) {
					led_value = led_value |= (1<<i);
				}
			} else if (implementation_mode == SCCHARTS_MODE) {
				for (int i = LEDG0; i < LEDG3 + 1; i += 2) {
  800bdc:	e0bf8017 	ldw	r2,-512(fp)
  800be0:	10800084 	addi	r2,r2,2
  800be4:	e0bf8015 	stw	r2,-512(fp)
  800be8:	e0bf8017 	ldw	r2,-512(fp)
  800bec:	10800110 	cmplti	r2,r2,4
  800bf0:	103ff41e 	bne	r2,zero,800bc4 <__alt_mem_onchip_mem+0xff7f8bc4>
					led_value = led_value |= (1<<i);
				}
			}

			IOWR_ALTERA_AVALON_PIO_DATA(LEDS_GREEN_BASE, led_value);
  800bf4:	00804074 	movhi	r2,257
  800bf8:	10841c04 	addi	r2,r2,4208
  800bfc:	e0ff7e17 	ldw	r3,-520(fp)
  800c00:	10c00035 	stwio	r3,0(r2)
		}
		// PACE LEDS == PACE LEDS == PACE LEDS == PACE LEDS ==
		// PACE LEDS == PACE LEDS == PACE LEDS == PACE LEDS ==

		// SENSE LEDS == SENSE LEDS == SENSE LEDS == SENSE LEDS ==
		if (led_sense_atrial_event) {
  800c04:	d0a72903 	ldbu	r2,-25436(gp)
  800c08:	10803fcc 	andi	r2,r2,255
  800c0c:	10003e26 	beq	r2,zero,800d08 <main+0x770>
			if (!a_sense_led_timer_already_started) {
  800c10:	d0a72a03 	ldbu	r2,-25432(gp)
  800c14:	1080005c 	xori	r2,r2,1
  800c18:	10803fcc 	andi	r2,r2,255
  800c1c:	10000c26 	beq	r2,zero,800c50 <main+0x6b8>
				alt_alarm_stop(&a_sense_led_timer);
  800c20:	e0bfe104 	addi	r2,fp,-124
  800c24:	1009883a 	mov	r4,r2
  800c28:	080a6280 	call	80a628 <alt_alarm_stop>
				alt_alarm_start(&a_sense_led_timer, LED_ON_MILLISECONDS, a_sense_led_timer_isr_function, NULL);
  800c2c:	e0bfe104 	addi	r2,fp,-124
  800c30:	000f883a 	mov	r7,zero
  800c34:	01802034 	movhi	r6,128
  800c38:	3180f704 	addi	r6,r6,988
  800c3c:	01400644 	movi	r5,25
  800c40:	1009883a 	mov	r4,r2
  800c44:	0809b6c0 	call	809b6c <alt_alarm_start>
				a_sense_led_timer_already_started = true;
  800c48:	00800044 	movi	r2,1
  800c4c:	d0a72a05 	stb	r2,-25432(gp)
			}
			int led_value = IORD_ALTERA_AVALON_PIO_DATA(LEDS_RED_BASE);
  800c50:	00804074 	movhi	r2,257
  800c54:	10842004 	addi	r2,r2,4224
  800c58:	10800037 	ldwio	r2,0(r2)
  800c5c:	e0bf8115 	stw	r2,-508(fp)

			if (implementation_mode == C_MODE) {
  800c60:	d0a72643 	ldbu	r2,-25447(gp)
  800c64:	1080005c 	xori	r2,r2,1
  800c68:	10803fcc 	andi	r2,r2,255
  800c6c:	10001026 	beq	r2,zero,800cb0 <main+0x718>
				// SET ALL BITS UP FROM LEDG0 TO LEDG3
				for (int i = 9; i < 18; i++) {
  800c70:	00800244 	movi	r2,9
  800c74:	e0bf8215 	stw	r2,-504(fp)
  800c78:	00000906 	br	800ca0 <main+0x708>
					led_value = led_value |= (1<<i);
  800c7c:	00c00044 	movi	r3,1
  800c80:	e0bf8217 	ldw	r2,-504(fp)
  800c84:	1884983a 	sll	r2,r3,r2
  800c88:	e0ff8117 	ldw	r3,-508(fp)
  800c8c:	1884b03a 	or	r2,r3,r2
  800c90:	e0bf8115 	stw	r2,-508(fp)
			}
			int led_value = IORD_ALTERA_AVALON_PIO_DATA(LEDS_RED_BASE);

			if (implementation_mode == C_MODE) {
				// SET ALL BITS UP FROM LEDG0 TO LEDG3
				for (int i = 9; i < 18; i++) {
  800c94:	e0bf8217 	ldw	r2,-504(fp)
  800c98:	10800044 	addi	r2,r2,1
  800c9c:	e0bf8215 	stw	r2,-504(fp)
  800ca0:	e0bf8217 	ldw	r2,-504(fp)
  800ca4:	10800490 	cmplti	r2,r2,18
  800ca8:	103ff41e 	bne	r2,zero,800c7c <__alt_mem_onchip_mem+0xff7f8c7c>
  800cac:	00001206 	br	800cf8 <main+0x760>
					led_value = led_value |= (1<<i);
				}
			} else if (implementation_mode == SCCHARTS_MODE) {
  800cb0:	d0a72643 	ldbu	r2,-25447(gp)
  800cb4:	10803fcc 	andi	r2,r2,255
  800cb8:	10000f26 	beq	r2,zero,800cf8 <main+0x760>
				for (int i = 9; i < 18; i += 2) {
  800cbc:	00800244 	movi	r2,9
  800cc0:	e0bf8315 	stw	r2,-500(fp)
  800cc4:	00000906 	br	800cec <main+0x754>
					led_value = led_value |= (1<<i);
  800cc8:	00c00044 	movi	r3,1
  800ccc:	e0bf8317 	ldw	r2,-500(fp)
  800cd0:	1884983a 	sll	r2,r3,r2
  800cd4:	e0ff8117 	ldw	r3,-508(fp)
  800cd8:	1884b03a 	or	r2,r3,r2
  800cdc:	e0bf8115 	stw	r2,-508(fp)
				// SET ALL BITS UP FROM LEDG0 TO LEDG3
				for (int i = 9; i < 18; i++) {
					led_value = led_value |= (1<<i);
				}
			} else if (implementation_mode == SCCHARTS_MODE) {
				for (int i = 9; i < 18; i += 2) {
  800ce0:	e0bf8317 	ldw	r2,-500(fp)
  800ce4:	10800084 	addi	r2,r2,2
  800ce8:	e0bf8315 	stw	r2,-500(fp)
  800cec:	e0bf8317 	ldw	r2,-500(fp)
  800cf0:	10800490 	cmplti	r2,r2,18
  800cf4:	103ff41e 	bne	r2,zero,800cc8 <__alt_mem_onchip_mem+0xff7f8cc8>
					led_value = led_value |= (1<<i);
				}
			}

			IOWR_ALTERA_AVALON_PIO_DATA(LEDS_RED_BASE, led_value);
  800cf8:	00804074 	movhi	r2,257
  800cfc:	10842004 	addi	r2,r2,4224
  800d00:	e0ff8117 	ldw	r3,-508(fp)
  800d04:	10c00035 	stwio	r3,0(r2)

		}

		if (led_sense_ventricular_event) {
  800d08:	d0a72943 	ldbu	r2,-25435(gp)
  800d0c:	10803fcc 	andi	r2,r2,255
  800d10:	10003c26 	beq	r2,zero,800e04 <main+0x86c>
			if (!v_sense_led_timer_already_started) {
  800d14:	d0a72a43 	ldbu	r2,-25431(gp)
  800d18:	1080005c 	xori	r2,r2,1
  800d1c:	10803fcc 	andi	r2,r2,255
  800d20:	10000c26 	beq	r2,zero,800d54 <main+0x7bc>
				alt_alarm_stop(&v_sense_led_timer);
  800d24:	e0bfe704 	addi	r2,fp,-100
  800d28:	1009883a 	mov	r4,r2
  800d2c:	080a6280 	call	80a628 <alt_alarm_stop>
				alt_alarm_start(&v_sense_led_timer, LED_ON_MILLISECONDS, v_sense_led_timer_isr_function, NULL);
  800d30:	e0bfe704 	addi	r2,fp,-100
  800d34:	000f883a 	mov	r7,zero
  800d38:	01802034 	movhi	r6,128
  800d3c:	31810104 	addi	r6,r6,1028
  800d40:	01400644 	movi	r5,25
  800d44:	1009883a 	mov	r4,r2
  800d48:	0809b6c0 	call	809b6c <alt_alarm_start>
				v_sense_led_timer_already_started = true;
  800d4c:	00800044 	movi	r2,1
  800d50:	d0a72a45 	stb	r2,-25431(gp)
			}
			int led_value = IORD_ALTERA_AVALON_PIO_DATA(LEDS_RED_BASE);
  800d54:	00804074 	movhi	r2,257
  800d58:	10842004 	addi	r2,r2,4224
  800d5c:	10800037 	ldwio	r2,0(r2)
  800d60:	e0bf8415 	stw	r2,-496(fp)

			if (implementation_mode == C_MODE) {
  800d64:	d0a72643 	ldbu	r2,-25447(gp)
  800d68:	1080005c 	xori	r2,r2,1
  800d6c:	10803fcc 	andi	r2,r2,255
  800d70:	10000f26 	beq	r2,zero,800db0 <main+0x818>
				// SET ALL BITS UP FROM LEDG0 TO LEDG3
				for (int i = 0; i < 9; i++) {
  800d74:	e03f8515 	stw	zero,-492(fp)
  800d78:	00000906 	br	800da0 <main+0x808>
					led_value = led_value |= (1<<i);
  800d7c:	00c00044 	movi	r3,1
  800d80:	e0bf8517 	ldw	r2,-492(fp)
  800d84:	1884983a 	sll	r2,r3,r2
  800d88:	e0ff8417 	ldw	r3,-496(fp)
  800d8c:	1884b03a 	or	r2,r3,r2
  800d90:	e0bf8415 	stw	r2,-496(fp)
			}
			int led_value = IORD_ALTERA_AVALON_PIO_DATA(LEDS_RED_BASE);

			if (implementation_mode == C_MODE) {
				// SET ALL BITS UP FROM LEDG0 TO LEDG3
				for (int i = 0; i < 9; i++) {
  800d94:	e0bf8517 	ldw	r2,-492(fp)
  800d98:	10800044 	addi	r2,r2,1
  800d9c:	e0bf8515 	stw	r2,-492(fp)
  800da0:	e0bf8517 	ldw	r2,-492(fp)
  800da4:	10800250 	cmplti	r2,r2,9
  800da8:	103ff41e 	bne	r2,zero,800d7c <__alt_mem_onchip_mem+0xff7f8d7c>
  800dac:	00001106 	br	800df4 <main+0x85c>
					led_value = led_value |= (1<<i);
				}
			} else if (implementation_mode == SCCHARTS_MODE) {
  800db0:	d0a72643 	ldbu	r2,-25447(gp)
  800db4:	10803fcc 	andi	r2,r2,255
  800db8:	10000e26 	beq	r2,zero,800df4 <main+0x85c>
				for (int i = 0; i < 9; i += 2) {
  800dbc:	e03f8615 	stw	zero,-488(fp)
  800dc0:	00000906 	br	800de8 <main+0x850>
					led_value = led_value |= (1<<i);
  800dc4:	00c00044 	movi	r3,1
  800dc8:	e0bf8617 	ldw	r2,-488(fp)
  800dcc:	1884983a 	sll	r2,r3,r2
  800dd0:	e0ff8417 	ldw	r3,-496(fp)
  800dd4:	1884b03a 	or	r2,r3,r2
  800dd8:	e0bf8415 	stw	r2,-496(fp)
				// SET ALL BITS UP FROM LEDG0 TO LEDG3
				for (int i = 0; i < 9; i++) {
					led_value = led_value |= (1<<i);
				}
			} else if (implementation_mode == SCCHARTS_MODE) {
				for (int i = 0; i < 9; i += 2) {
  800ddc:	e0bf8617 	ldw	r2,-488(fp)
  800de0:	10800084 	addi	r2,r2,2
  800de4:	e0bf8615 	stw	r2,-488(fp)
  800de8:	e0bf8617 	ldw	r2,-488(fp)
  800dec:	10800250 	cmplti	r2,r2,9
  800df0:	103ff41e 	bne	r2,zero,800dc4 <__alt_mem_onchip_mem+0xff7f8dc4>
					led_value = led_value |= (1<<i);
				}
			}


			IOWR_ALTERA_AVALON_PIO_DATA(LEDS_RED_BASE, led_value);
  800df4:	00804074 	movhi	r2,257
  800df8:	10842004 	addi	r2,r2,4224
  800dfc:	e0ff8417 	ldw	r3,-496(fp)
  800e00:	10c00035 	stwio	r3,0(r2)

		}

		clear_pace_led_events();
  800e04:	0800f000 	call	800f00 <clear_pace_led_events>
		clear_sense_led_events();
  800e08:	08010040 	call	801004 <clear_sense_led_events>
		//clear_heart_flags();
	}
  800e0c:	003e4a06 	br	800738 <__alt_mem_onchip_mem+0xff7f8738>

00800e10 <send_atrial_event>:
	printf("Exiting Loop.\n");
	return 0;
}

void send_atrial_event(bool isThisEventPaced) {
  800e10:	defffd04 	addi	sp,sp,-12
  800e14:	df000215 	stw	fp,8(sp)
  800e18:	df000204 	addi	fp,sp,8
  800e1c:	2005883a 	mov	r2,r4
  800e20:	e0bfff05 	stb	r2,-4(fp)
	if (isThisEventPaced) {
  800e24:	e0bfff03 	ldbu	r2,-4(fp)
  800e28:	10000926 	beq	r2,zero,800e50 <send_atrial_event+0x40>
		a_is_paced = true;
  800e2c:	00800044 	movi	r2,1
  800e30:	d0a726c5 	stb	r2,-25445(gp)
		char atrial_char = 'A';
  800e34:	00801044 	movi	r2,65
  800e38:	e0bffe05 	stb	r2,-8(fp)
		IOWR_ALTERA_AVALON_UART_TXDATA(UART_BASE, atrial_char);
  800e3c:	e0fffe07 	ldb	r3,-8(fp)
  800e40:	00804074 	movhi	r2,257
  800e44:	10841104 	addi	r2,r2,4164
  800e48:	10c00035 	stwio	r3,0(r2)
  800e4c:	00000106 	br	800e54 <send_atrial_event+0x44>
	} else {
		a_is_paced = false;
  800e50:	d02726c5 	stb	zero,-25445(gp)
	}
	atrial_event = true;
  800e54:	00800044 	movi	r2,1
  800e58:	d0a72685 	stb	r2,-25446(gp)
	//printf("Atrial Event Flagged!\n");
}
  800e5c:	0001883a 	nop
  800e60:	e037883a 	mov	sp,fp
  800e64:	df000017 	ldw	fp,0(sp)
  800e68:	dec00104 	addi	sp,sp,4
  800e6c:	f800283a 	ret

00800e70 <send_ventricular_event>:

void send_ventricular_event(bool isThisEventPaced) {
  800e70:	defffd04 	addi	sp,sp,-12
  800e74:	df000215 	stw	fp,8(sp)
  800e78:	df000204 	addi	fp,sp,8
  800e7c:	2005883a 	mov	r2,r4
  800e80:	e0bfff05 	stb	r2,-4(fp)
	if (isThisEventPaced) {
  800e84:	e0bfff03 	ldbu	r2,-4(fp)
  800e88:	10000926 	beq	r2,zero,800eb0 <send_ventricular_event+0x40>
		v_is_paced = true;
  800e8c:	00800044 	movi	r2,1
  800e90:	d0a72745 	stb	r2,-25443(gp)
		char ventricular_char = 'V';
  800e94:	00801584 	movi	r2,86
  800e98:	e0bffe05 	stb	r2,-8(fp)
		IOWR_ALTERA_AVALON_UART_TXDATA(UART_BASE, ventricular_char);
  800e9c:	e0fffe07 	ldb	r3,-8(fp)
  800ea0:	00804074 	movhi	r2,257
  800ea4:	10841104 	addi	r2,r2,4164
  800ea8:	10c00035 	stwio	r3,0(r2)
  800eac:	00000106 	br	800eb4 <send_ventricular_event+0x44>
	} else {
		v_is_paced = false;
  800eb0:	d0272745 	stb	zero,-25443(gp)
	}
	ventricular_event = true;
  800eb4:	00800044 	movi	r2,1
  800eb8:	d0a72705 	stb	r2,-25444(gp)
	//printf("Ventricular Event Flagged!\n");
}
  800ebc:	0001883a 	nop
  800ec0:	e037883a 	mov	sp,fp
  800ec4:	df000017 	ldw	fp,0(sp)
  800ec8:	dec00104 	addi	sp,sp,4
  800ecc:	f800283a 	ret

00800ed0 <clear_heart_flags>:

void clear_heart_flags() {
  800ed0:	deffff04 	addi	sp,sp,-4
  800ed4:	df000015 	stw	fp,0(sp)
  800ed8:	d839883a 	mov	fp,sp
	atrial_event = false;
  800edc:	d0272685 	stb	zero,-25446(gp)
	ventricular_event = false;
  800ee0:	d0272705 	stb	zero,-25444(gp)
	a_is_paced = false;
  800ee4:	d02726c5 	stb	zero,-25445(gp)
	v_is_paced = false;
  800ee8:	d0272745 	stb	zero,-25443(gp)
}
  800eec:	0001883a 	nop
  800ef0:	e037883a 	mov	sp,fp
  800ef4:	df000017 	ldw	fp,0(sp)
  800ef8:	dec00104 	addi	sp,sp,4
  800efc:	f800283a 	ret

00800f00 <clear_pace_led_events>:

void clear_pace_led_events() {
  800f00:	defffb04 	addi	sp,sp,-20
  800f04:	df000415 	stw	fp,16(sp)
  800f08:	df000404 	addi	fp,sp,16
	if (!led_pace_atrial_event) {
  800f0c:	d0a72883 	ldbu	r2,-25438(gp)
  800f10:	1080005c 	xori	r2,r2,1
  800f14:	10803fcc 	andi	r2,r2,255
  800f18:	10001926 	beq	r2,zero,800f80 <clear_pace_led_events+0x80>
		a_pace_led_timer_already_started = false;
  800f1c:	d0272985 	stb	zero,-25434(gp)
		int led_value = IORD_ALTERA_AVALON_PIO_DATA(LEDS_GREEN_BASE);
  800f20:	00804074 	movhi	r2,257
  800f24:	10841c04 	addi	r2,r2,4208
  800f28:	10800037 	ldwio	r2,0(r2)
  800f2c:	e0bffc15 	stw	r2,-16(fp)


		// CLEAR ALL BITS UP FROM LEDG0 TO LEDG3
		for (int i = LEDG4; i < LEDG7 + 1; i++) {
  800f30:	00800104 	movi	r2,4
  800f34:	e0bffd15 	stw	r2,-12(fp)
  800f38:	00000a06 	br	800f64 <clear_pace_led_events+0x64>
			led_value = led_value &= ~(1<<i);
  800f3c:	00c00044 	movi	r3,1
  800f40:	e0bffd17 	ldw	r2,-12(fp)
  800f44:	1884983a 	sll	r2,r3,r2
  800f48:	0084303a 	nor	r2,zero,r2
  800f4c:	e0fffc17 	ldw	r3,-16(fp)
  800f50:	1884703a 	and	r2,r3,r2
  800f54:	e0bffc15 	stw	r2,-16(fp)
		a_pace_led_timer_already_started = false;
		int led_value = IORD_ALTERA_AVALON_PIO_DATA(LEDS_GREEN_BASE);


		// CLEAR ALL BITS UP FROM LEDG0 TO LEDG3
		for (int i = LEDG4; i < LEDG7 + 1; i++) {
  800f58:	e0bffd17 	ldw	r2,-12(fp)
  800f5c:	10800044 	addi	r2,r2,1
  800f60:	e0bffd15 	stw	r2,-12(fp)
  800f64:	e0bffd17 	ldw	r2,-12(fp)
  800f68:	10800210 	cmplti	r2,r2,8
  800f6c:	103ff31e 	bne	r2,zero,800f3c <__alt_mem_onchip_mem+0xff7f8f3c>
			led_value = led_value &= ~(1<<i);
		}


		IOWR_ALTERA_AVALON_PIO_DATA(LEDS_GREEN_BASE, led_value);
  800f70:	00804074 	movhi	r2,257
  800f74:	10841c04 	addi	r2,r2,4208
  800f78:	e0fffc17 	ldw	r3,-16(fp)
  800f7c:	10c00035 	stwio	r3,0(r2)
	}

	if (!led_pace_ventricular_event) {
  800f80:	d0a728c3 	ldbu	r2,-25437(gp)
  800f84:	1080005c 	xori	r2,r2,1
  800f88:	10803fcc 	andi	r2,r2,255
  800f8c:	10001826 	beq	r2,zero,800ff0 <clear_pace_led_events+0xf0>
		v_pace_led_timer_already_started = false;
  800f90:	d02729c5 	stb	zero,-25433(gp)
		int led_value = IORD_ALTERA_AVALON_PIO_DATA(LEDS_GREEN_BASE);
  800f94:	00804074 	movhi	r2,257
  800f98:	10841c04 	addi	r2,r2,4208
  800f9c:	10800037 	ldwio	r2,0(r2)
  800fa0:	e0bffe15 	stw	r2,-8(fp)

		// CLEAR ALL BITS UP FROM LEDG0 TO LEDG3
		for (int i = LEDG0; i < LEDG3 + 1; i++) {
  800fa4:	e03fff15 	stw	zero,-4(fp)
  800fa8:	00000a06 	br	800fd4 <clear_pace_led_events+0xd4>
			led_value = led_value &= ~(1<<i);
  800fac:	00c00044 	movi	r3,1
  800fb0:	e0bfff17 	ldw	r2,-4(fp)
  800fb4:	1884983a 	sll	r2,r3,r2
  800fb8:	0084303a 	nor	r2,zero,r2
  800fbc:	e0fffe17 	ldw	r3,-8(fp)
  800fc0:	1884703a 	and	r2,r3,r2
  800fc4:	e0bffe15 	stw	r2,-8(fp)
	if (!led_pace_ventricular_event) {
		v_pace_led_timer_already_started = false;
		int led_value = IORD_ALTERA_AVALON_PIO_DATA(LEDS_GREEN_BASE);

		// CLEAR ALL BITS UP FROM LEDG0 TO LEDG3
		for (int i = LEDG0; i < LEDG3 + 1; i++) {
  800fc8:	e0bfff17 	ldw	r2,-4(fp)
  800fcc:	10800044 	addi	r2,r2,1
  800fd0:	e0bfff15 	stw	r2,-4(fp)
  800fd4:	e0bfff17 	ldw	r2,-4(fp)
  800fd8:	10800110 	cmplti	r2,r2,4
  800fdc:	103ff31e 	bne	r2,zero,800fac <__alt_mem_onchip_mem+0xff7f8fac>
			led_value = led_value &= ~(1<<i);
		}
		IOWR_ALTERA_AVALON_PIO_DATA(LEDS_GREEN_BASE, led_value);
  800fe0:	00804074 	movhi	r2,257
  800fe4:	10841c04 	addi	r2,r2,4208
  800fe8:	e0fffe17 	ldw	r3,-8(fp)
  800fec:	10c00035 	stwio	r3,0(r2)
	}
}
  800ff0:	0001883a 	nop
  800ff4:	e037883a 	mov	sp,fp
  800ff8:	df000017 	ldw	fp,0(sp)
  800ffc:	dec00104 	addi	sp,sp,4
  801000:	f800283a 	ret

00801004 <clear_sense_led_events>:

void clear_sense_led_events() {
  801004:	defffb04 	addi	sp,sp,-20
  801008:	df000415 	stw	fp,16(sp)
  80100c:	df000404 	addi	fp,sp,16
	if (!led_sense_atrial_event) {
  801010:	d0a72903 	ldbu	r2,-25436(gp)
  801014:	1080005c 	xori	r2,r2,1
  801018:	10803fcc 	andi	r2,r2,255
  80101c:	10001926 	beq	r2,zero,801084 <clear_sense_led_events+0x80>
		a_sense_led_timer_already_started = false;
  801020:	d0272a05 	stb	zero,-25432(gp)
		int led_value = IORD_ALTERA_AVALON_PIO_DATA(LEDS_RED_BASE);
  801024:	00804074 	movhi	r2,257
  801028:	10842004 	addi	r2,r2,4224
  80102c:	10800037 	ldwio	r2,0(r2)
  801030:	e0bffc15 	stw	r2,-16(fp)

		// CLEAR ALL BITS UP FROM LEDG0 TO LEDG3
		for (int i = 9; i < 18; i++) {
  801034:	00800244 	movi	r2,9
  801038:	e0bffd15 	stw	r2,-12(fp)
  80103c:	00000a06 	br	801068 <clear_sense_led_events+0x64>
			led_value = led_value &= ~(1<<i);
  801040:	00c00044 	movi	r3,1
  801044:	e0bffd17 	ldw	r2,-12(fp)
  801048:	1884983a 	sll	r2,r3,r2
  80104c:	0084303a 	nor	r2,zero,r2
  801050:	e0fffc17 	ldw	r3,-16(fp)
  801054:	1884703a 	and	r2,r3,r2
  801058:	e0bffc15 	stw	r2,-16(fp)
	if (!led_sense_atrial_event) {
		a_sense_led_timer_already_started = false;
		int led_value = IORD_ALTERA_AVALON_PIO_DATA(LEDS_RED_BASE);

		// CLEAR ALL BITS UP FROM LEDG0 TO LEDG3
		for (int i = 9; i < 18; i++) {
  80105c:	e0bffd17 	ldw	r2,-12(fp)
  801060:	10800044 	addi	r2,r2,1
  801064:	e0bffd15 	stw	r2,-12(fp)
  801068:	e0bffd17 	ldw	r2,-12(fp)
  80106c:	10800490 	cmplti	r2,r2,18
  801070:	103ff31e 	bne	r2,zero,801040 <__alt_mem_onchip_mem+0xff7f9040>
			led_value = led_value &= ~(1<<i);
		}

		IOWR_ALTERA_AVALON_PIO_DATA(LEDS_RED_BASE, led_value);
  801074:	00804074 	movhi	r2,257
  801078:	10842004 	addi	r2,r2,4224
  80107c:	e0fffc17 	ldw	r3,-16(fp)
  801080:	10c00035 	stwio	r3,0(r2)
	}

	if (!led_sense_ventricular_event) {
  801084:	d0a72943 	ldbu	r2,-25435(gp)
  801088:	1080005c 	xori	r2,r2,1
  80108c:	10803fcc 	andi	r2,r2,255
  801090:	10001826 	beq	r2,zero,8010f4 <clear_sense_led_events+0xf0>
		v_sense_led_timer_already_started = false;
  801094:	d0272a45 	stb	zero,-25431(gp)
		int led_value = IORD_ALTERA_AVALON_PIO_DATA(LEDS_RED_BASE);
  801098:	00804074 	movhi	r2,257
  80109c:	10842004 	addi	r2,r2,4224
  8010a0:	10800037 	ldwio	r2,0(r2)
  8010a4:	e0bffe15 	stw	r2,-8(fp)

		// CLEAR ALL BITS UP FROM LEDG0 TO LEDG3
		for (int i = 0; i < 9; i++) {
  8010a8:	e03fff15 	stw	zero,-4(fp)
  8010ac:	00000a06 	br	8010d8 <clear_sense_led_events+0xd4>
			led_value = led_value &= ~(1<<i);
  8010b0:	00c00044 	movi	r3,1
  8010b4:	e0bfff17 	ldw	r2,-4(fp)
  8010b8:	1884983a 	sll	r2,r3,r2
  8010bc:	0084303a 	nor	r2,zero,r2
  8010c0:	e0fffe17 	ldw	r3,-8(fp)
  8010c4:	1884703a 	and	r2,r3,r2
  8010c8:	e0bffe15 	stw	r2,-8(fp)
	if (!led_sense_ventricular_event) {
		v_sense_led_timer_already_started = false;
		int led_value = IORD_ALTERA_AVALON_PIO_DATA(LEDS_RED_BASE);

		// CLEAR ALL BITS UP FROM LEDG0 TO LEDG3
		for (int i = 0; i < 9; i++) {
  8010cc:	e0bfff17 	ldw	r2,-4(fp)
  8010d0:	10800044 	addi	r2,r2,1
  8010d4:	e0bfff15 	stw	r2,-4(fp)
  8010d8:	e0bfff17 	ldw	r2,-4(fp)
  8010dc:	10800250 	cmplti	r2,r2,9
  8010e0:	103ff31e 	bne	r2,zero,8010b0 <__alt_mem_onchip_mem+0xff7f90b0>
			led_value = led_value &= ~(1<<i);
		}

		IOWR_ALTERA_AVALON_PIO_DATA(LEDS_RED_BASE, led_value);
  8010e4:	00804074 	movhi	r2,257
  8010e8:	10842004 	addi	r2,r2,4224
  8010ec:	e0fffe17 	ldw	r3,-8(fp)
  8010f0:	10c00035 	stwio	r3,0(r2)
	}
}
  8010f4:	0001883a 	nop
  8010f8:	e037883a 	mov	sp,fp
  8010fc:	df000017 	ldw	fp,0(sp)
  801100:	dec00104 	addi	sp,sp,4
  801104:	f800283a 	ret

00801108 <C_Mode_Pacemaker>:

void C_Mode_Pacemaker(int a_timer_count, int v_timer_count) {
  801108:	defffc04 	addi	sp,sp,-16
  80110c:	dfc00315 	stw	ra,12(sp)
  801110:	df000215 	stw	fp,8(sp)
  801114:	df000204 	addi	fp,sp,8
  801118:	e13ffe15 	stw	r4,-8(fp)
  80111c:	e17fff15 	stw	r5,-4(fp)
	// AEvents Logic
	//int a_count = (int)a_timer_count;

	// pace ventricular event if
	if (v_timer_count >= AEI_VALUE && !atrial_sense) {
  801120:	e0bfff17 	ldw	r2,-4(fp)
  801124:	1080c810 	cmplti	r2,r2,800
  801128:	1000061e 	bne	r2,zero,801144 <C_Mode_Pacemaker+0x3c>
  80112c:	d0a72783 	ldbu	r2,-25442(gp)
  801130:	1080005c 	xori	r2,r2,1
  801134:	10803fcc 	andi	r2,r2,255
  801138:	10000226 	beq	r2,zero,801144 <C_Mode_Pacemaker+0x3c>
		// send atrial event
		send_atrial_event(true);
  80113c:	01000044 	movi	r4,1
  801140:	0800e100 	call	800e10 <send_atrial_event>
	}

	// Do not pace ventricle until URI
	if (v_timer_count >= URI_VALUE) {
  801144:	e0bfff17 	ldw	r2,-4(fp)
  801148:	1080e110 	cmplti	r2,r2,900
  80114c:	1000121e 	bne	r2,zero,801198 <C_Mode_Pacemaker+0x90>
		// Ignore any ventricular events until VRP
		// Pace ventricular if above AVI
		if (a_timer_count >= AVI_VALUE && !ventricular_sense) {
  801150:	e0bffe17 	ldw	r2,-8(fp)
  801154:	10804b10 	cmplti	r2,r2,300
  801158:	1000061e 	bne	r2,zero,801174 <C_Mode_Pacemaker+0x6c>
  80115c:	d0a727c3 	ldbu	r2,-25441(gp)
  801160:	1080005c 	xori	r2,r2,1
  801164:	10803fcc 	andi	r2,r2,255
  801168:	10000226 	beq	r2,zero,801174 <C_Mode_Pacemaker+0x6c>
			send_ventricular_event(true);
  80116c:	01000044 	movi	r4,1
  801170:	0800e700 	call	800e70 <send_ventricular_event>
		}

		// Pace ventricular if LRI has been hit
		if (v_timer_count >= LRI_VALUE && !ventricular_sense) {
  801174:	e0bfff17 	ldw	r2,-4(fp)
  801178:	1080ed90 	cmplti	r2,r2,950
  80117c:	1000061e 	bne	r2,zero,801198 <C_Mode_Pacemaker+0x90>
  801180:	d0a727c3 	ldbu	r2,-25441(gp)
  801184:	1080005c 	xori	r2,r2,1
  801188:	10803fcc 	andi	r2,r2,255
  80118c:	10000226 	beq	r2,zero,801198 <C_Mode_Pacemaker+0x90>
			// Send Ventricular event
			send_ventricular_event(true);
  801190:	01000044 	movi	r4,1
  801194:	0800e700 	call	800e70 <send_ventricular_event>
		}


	}
}
  801198:	0001883a 	nop
  80119c:	e037883a 	mov	sp,fp
  8011a0:	dfc00117 	ldw	ra,4(sp)
  8011a4:	df000017 	ldw	fp,0(sp)
  8011a8:	dec00204 	addi	sp,sp,8
  8011ac:	f800283a 	ret

008011b0 <SCCHARTS_Mode_Pacemaker>:

void SCCHARTS_Mode_Pacemaker() {
  8011b0:	deffff04 	addi	sp,sp,-4
  8011b4:	df000015 	stw	fp,0(sp)
  8011b8:	d839883a 	mov	fp,sp

}
  8011bc:	0001883a 	nop
  8011c0:	e037883a 	mov	sp,fp
  8011c4:	df000017 	ldw	fp,0(sp)
  8011c8:	dec00104 	addi	sp,sp,4
  8011cc:	f800283a 	ret

008011d0 <logic>:

#include "timing.h"

#include "sccharts.h"

void logic(TickData* d) {
  8011d0:	defffa04 	addi	sp,sp,-24
  8011d4:	dfc00515 	stw	ra,20(sp)
  8011d8:	df000415 	stw	fp,16(sp)
  8011dc:	dc800315 	stw	r18,12(sp)
  8011e0:	dc400215 	stw	r17,8(sp)
  8011e4:	dc000115 	stw	r16,4(sp)
  8011e8:	df000404 	addi	fp,sp,16
  8011ec:	e13ffc15 	stw	r4,-16(fp)
  d->_g127 = d->_pg66;
  8011f0:	e0bffc17 	ldw	r2,-16(fp)
  8011f4:	10c03f83 	ldbu	r3,254(r2)
  8011f8:	e0bffc17 	ldw	r2,-16(fp)
  8011fc:	10c03105 	stb	r3,196(r2)
  if (d->_g127) {
  801200:	e0bffc17 	ldw	r2,-16(fp)
  801204:	10803103 	ldbu	r2,196(r2)
  801208:	10803fcc 	andi	r2,r2,255
  80120c:	1080201c 	xori	r2,r2,128
  801210:	10bfe004 	addi	r2,r2,-128
  801214:	10001226 	beq	r2,zero,801260 <logic+0x90>
    d->AVI_Clock += d->deltaT;
  801218:	e13ffc17 	ldw	r4,-16(fp)
  80121c:	20801017 	ldw	r2,64(r4)
  801220:	20c01117 	ldw	r3,68(r4)
  801224:	e1bffc17 	ldw	r6,-16(fp)
  801228:	31001917 	ldw	r4,100(r6)
  80122c:	31401a17 	ldw	r5,104(r6)
  801230:	200d883a 	mov	r6,r4
  801234:	280f883a 	mov	r7,r5
  801238:	1009883a 	mov	r4,r2
  80123c:	180b883a 	mov	r5,r3
  801240:	08055640 	call	805564 <__adddf3>
  801244:	1009883a 	mov	r4,r2
  801248:	180b883a 	mov	r5,r3
  80124c:	2005883a 	mov	r2,r4
  801250:	2807883a 	mov	r3,r5
  801254:	e13ffc17 	ldw	r4,-16(fp)
  801258:	20801015 	stw	r2,64(r4)
  80125c:	20c01115 	stw	r3,68(r4)
  }
  d->_g70 = d->_pg44;
  801260:	e0bffc17 	ldw	r2,-16(fp)
  801264:	10c03fc3 	ldbu	r3,255(r2)
  801268:	e0bffc17 	ldw	r2,-16(fp)
  80126c:	10c02b45 	stb	r3,173(r2)
  d->_g64 = d->_pg38;
  801270:	e0bffc17 	ldw	r2,-16(fp)
  801274:	10c04003 	ldbu	r3,256(r2)
  801278:	e0bffc17 	ldw	r2,-16(fp)
  80127c:	10c02a45 	stb	r3,169(r2)
  d->_g67_e1 = !(d->_g70 || d->_g64);
  801280:	e0bffc17 	ldw	r2,-16(fp)
  801284:	10802b43 	ldbu	r2,173(r2)
  801288:	10803fcc 	andi	r2,r2,255
  80128c:	1080201c 	xori	r2,r2,128
  801290:	10bfe004 	addi	r2,r2,-128
  801294:	1000081e 	bne	r2,zero,8012b8 <logic+0xe8>
  801298:	e0bffc17 	ldw	r2,-16(fp)
  80129c:	10802a43 	ldbu	r2,169(r2)
  8012a0:	10803fcc 	andi	r2,r2,255
  8012a4:	1080201c 	xori	r2,r2,128
  8012a8:	10bfe004 	addi	r2,r2,-128
  8012ac:	1000021e 	bne	r2,zero,8012b8 <logic+0xe8>
  8012b0:	00800044 	movi	r2,1
  8012b4:	00000106 	br	8012bc <logic+0xec>
  8012b8:	0005883a 	mov	r2,zero
  8012bc:	1007883a 	mov	r3,r2
  8012c0:	e0bffc17 	ldw	r2,-16(fp)
  8012c4:	10c03e85 	stb	r3,250(r2)
  d->_g123 = d->_pg96;
  8012c8:	e0bffc17 	ldw	r2,-16(fp)
  8012cc:	10c04043 	ldbu	r3,257(r2)
  8012d0:	e0bffc17 	ldw	r2,-16(fp)
  8012d4:	10c030c5 	stb	r3,195(r2)
  if (d->_g123) {
  8012d8:	e0bffc17 	ldw	r2,-16(fp)
  8012dc:	108030c3 	ldbu	r2,195(r2)
  8012e0:	10803fcc 	andi	r2,r2,255
  8012e4:	1080201c 	xori	r2,r2,128
  8012e8:	10bfe004 	addi	r2,r2,-128
  8012ec:	10001226 	beq	r2,zero,801338 <logic+0x168>
    d->PVARP_Clock += d->deltaT;
  8012f0:	e13ffc17 	ldw	r4,-16(fp)
  8012f4:	20800e17 	ldw	r2,56(r4)
  8012f8:	20c00f17 	ldw	r3,60(r4)
  8012fc:	e1bffc17 	ldw	r6,-16(fp)
  801300:	31001917 	ldw	r4,100(r6)
  801304:	31401a17 	ldw	r5,104(r6)
  801308:	200d883a 	mov	r6,r4
  80130c:	280f883a 	mov	r7,r5
  801310:	1009883a 	mov	r4,r2
  801314:	180b883a 	mov	r5,r3
  801318:	08055640 	call	805564 <__adddf3>
  80131c:	1009883a 	mov	r4,r2
  801320:	180b883a 	mov	r5,r3
  801324:	2005883a 	mov	r2,r4
  801328:	2807883a 	mov	r3,r5
  80132c:	e13ffc17 	ldw	r4,-16(fp)
  801330:	20800e15 	stw	r2,56(r4)
  801334:	20c00f15 	stw	r3,60(r4)
  }
  d->_g85 = d->_pg97;
  801338:	e0bffc17 	ldw	r2,-16(fp)
  80133c:	10c04083 	ldbu	r3,258(r2)
  801340:	e0bffc17 	ldw	r2,-16(fp)
  801344:	10c02c85 	stb	r3,178(r2)
  d->_cg85 = d->AS == 1 && d->PVARP_Clock >= d->PVARP;
  801348:	e0bffc17 	ldw	r2,-16(fp)
  80134c:	10801d03 	ldbu	r2,116(r2)
  801350:	10803fcc 	andi	r2,r2,255
  801354:	1080201c 	xori	r2,r2,128
  801358:	10bfe004 	addi	r2,r2,-128
  80135c:	10800058 	cmpnei	r2,r2,1
  801360:	1000111e 	bne	r2,zero,8013a8 <logic+0x1d8>
  801364:	e0bffc17 	ldw	r2,-16(fp)
  801368:	14000e17 	ldw	r16,56(r2)
  80136c:	14400f17 	ldw	r17,60(r2)
  801370:	e0bffc17 	ldw	r2,-16(fp)
  801374:	10800217 	ldw	r2,8(r2)
  801378:	1009883a 	mov	r4,r2
  80137c:	08068dc0 	call	8068dc <__floatsidf>
  801380:	1009883a 	mov	r4,r2
  801384:	180b883a 	mov	r5,r3
  801388:	200d883a 	mov	r6,r4
  80138c:	280f883a 	mov	r7,r5
  801390:	8009883a 	mov	r4,r16
  801394:	880b883a 	mov	r5,r17
  801398:	0805e100 	call	805e10 <__gedf2>
  80139c:	10000216 	blt	r2,zero,8013a8 <logic+0x1d8>
  8013a0:	00800044 	movi	r2,1
  8013a4:	00000106 	br	8013ac <logic+0x1dc>
  8013a8:	0005883a 	mov	r2,zero
  8013ac:	1007883a 	mov	r3,r2
  8013b0:	e0bffc17 	ldw	r2,-16(fp)
  8013b4:	10c03c05 	stb	r3,240(r2)
  d->_g86 = d->_g85 && d->_cg85;
  8013b8:	e0bffc17 	ldw	r2,-16(fp)
  8013bc:	10802c83 	ldbu	r2,178(r2)
  8013c0:	10803fcc 	andi	r2,r2,255
  8013c4:	1080201c 	xori	r2,r2,128
  8013c8:	10bfe004 	addi	r2,r2,-128
  8013cc:	10000826 	beq	r2,zero,8013f0 <logic+0x220>
  8013d0:	e0bffc17 	ldw	r2,-16(fp)
  8013d4:	10803c03 	ldbu	r2,240(r2)
  8013d8:	10803fcc 	andi	r2,r2,255
  8013dc:	1080201c 	xori	r2,r2,128
  8013e0:	10bfe004 	addi	r2,r2,-128
  8013e4:	10000226 	beq	r2,zero,8013f0 <logic+0x220>
  8013e8:	00800044 	movi	r2,1
  8013ec:	00000106 	br	8013f4 <logic+0x224>
  8013f0:	0005883a 	mov	r2,zero
  8013f4:	1007883a 	mov	r3,r2
  8013f8:	e0bffc17 	ldw	r2,-16(fp)
  8013fc:	10c02cc5 	stb	r3,179(r2)
  if (d->_g86) {
  801400:	e0bffc17 	ldw	r2,-16(fp)
  801404:	10802cc3 	ldbu	r2,179(r2)
  801408:	10803fcc 	andi	r2,r2,255
  80140c:	1080201c 	xori	r2,r2,128
  801410:	10bfe004 	addi	r2,r2,-128
  801414:	10000326 	beq	r2,zero,801424 <logic+0x254>
    d->_Pacemaker_local__Atrig = 1;
  801418:	e0bffc17 	ldw	r2,-16(fp)
  80141c:	00c00044 	movi	r3,1
  801420:	10c01e05 	stb	r3,120(r2)
  }
  d->_g111 = d->_pg58;
  801424:	e0bffc17 	ldw	r2,-16(fp)
  801428:	10c040c3 	ldbu	r3,259(r2)
  80142c:	e0bffc17 	ldw	r2,-16(fp)
  801430:	10c03045 	stb	r3,193(r2)
  if (d->_g111) {
  801434:	e0bffc17 	ldw	r2,-16(fp)
  801438:	10803043 	ldbu	r2,193(r2)
  80143c:	10803fcc 	andi	r2,r2,255
  801440:	1080201c 	xori	r2,r2,128
  801444:	10bfe004 	addi	r2,r2,-128
  801448:	10001226 	beq	r2,zero,801494 <logic+0x2c4>
    d->AEI_Clock += d->deltaT;
  80144c:	e13ffc17 	ldw	r4,-16(fp)
  801450:	20800817 	ldw	r2,32(r4)
  801454:	20c00917 	ldw	r3,36(r4)
  801458:	e1bffc17 	ldw	r6,-16(fp)
  80145c:	31001917 	ldw	r4,100(r6)
  801460:	31401a17 	ldw	r5,104(r6)
  801464:	200d883a 	mov	r6,r4
  801468:	280f883a 	mov	r7,r5
  80146c:	1009883a 	mov	r4,r2
  801470:	180b883a 	mov	r5,r3
  801474:	08055640 	call	805564 <__adddf3>
  801478:	1009883a 	mov	r4,r2
  80147c:	180b883a 	mov	r5,r3
  801480:	2005883a 	mov	r2,r4
  801484:	2807883a 	mov	r3,r5
  801488:	e13ffc17 	ldw	r4,-16(fp)
  80148c:	20800815 	stw	r2,32(r4)
  801490:	20c00915 	stw	r3,36(r4)
  }
  d->_g88 = d->_g85 && !d->_cg85;
  801494:	e0bffc17 	ldw	r2,-16(fp)
  801498:	10802c83 	ldbu	r2,178(r2)
  80149c:	10803fcc 	andi	r2,r2,255
  8014a0:	1080201c 	xori	r2,r2,128
  8014a4:	10bfe004 	addi	r2,r2,-128
  8014a8:	10000826 	beq	r2,zero,8014cc <logic+0x2fc>
  8014ac:	e0bffc17 	ldw	r2,-16(fp)
  8014b0:	10803c03 	ldbu	r2,240(r2)
  8014b4:	10803fcc 	andi	r2,r2,255
  8014b8:	1080201c 	xori	r2,r2,128
  8014bc:	10bfe004 	addi	r2,r2,-128
  8014c0:	1000021e 	bne	r2,zero,8014cc <logic+0x2fc>
  8014c4:	00800044 	movi	r2,1
  8014c8:	00000106 	br	8014d0 <logic+0x300>
  8014cc:	0005883a 	mov	r2,zero
  8014d0:	1007883a 	mov	r3,r2
  8014d4:	e0bffc17 	ldw	r2,-16(fp)
  8014d8:	10c02d45 	stb	r3,181(r2)
  d->_cg88 = d->AS == 0 && d->AEI_Clock >= d->AEI;
  8014dc:	e0bffc17 	ldw	r2,-16(fp)
  8014e0:	10801d03 	ldbu	r2,116(r2)
  8014e4:	10803fcc 	andi	r2,r2,255
  8014e8:	1080201c 	xori	r2,r2,128
  8014ec:	10bfe004 	addi	r2,r2,-128
  8014f0:	1000111e 	bne	r2,zero,801538 <logic+0x368>
  8014f4:	e0bffc17 	ldw	r2,-16(fp)
  8014f8:	14000817 	ldw	r16,32(r2)
  8014fc:	14400917 	ldw	r17,36(r2)
  801500:	e0bffc17 	ldw	r2,-16(fp)
  801504:	10800117 	ldw	r2,4(r2)
  801508:	1009883a 	mov	r4,r2
  80150c:	08068dc0 	call	8068dc <__floatsidf>
  801510:	1009883a 	mov	r4,r2
  801514:	180b883a 	mov	r5,r3
  801518:	200d883a 	mov	r6,r4
  80151c:	280f883a 	mov	r7,r5
  801520:	8009883a 	mov	r4,r16
  801524:	880b883a 	mov	r5,r17
  801528:	0805e100 	call	805e10 <__gedf2>
  80152c:	10000216 	blt	r2,zero,801538 <logic+0x368>
  801530:	00800044 	movi	r2,1
  801534:	00000106 	br	80153c <logic+0x36c>
  801538:	0005883a 	mov	r2,zero
  80153c:	1007883a 	mov	r3,r2
  801540:	e0bffc17 	ldw	r2,-16(fp)
  801544:	10c03c45 	stb	r3,241(r2)
  d->_g89 = d->_g88 && d->_cg88;
  801548:	e0bffc17 	ldw	r2,-16(fp)
  80154c:	10802d43 	ldbu	r2,181(r2)
  801550:	10803fcc 	andi	r2,r2,255
  801554:	1080201c 	xori	r2,r2,128
  801558:	10bfe004 	addi	r2,r2,-128
  80155c:	10000826 	beq	r2,zero,801580 <logic+0x3b0>
  801560:	e0bffc17 	ldw	r2,-16(fp)
  801564:	10803c43 	ldbu	r2,241(r2)
  801568:	10803fcc 	andi	r2,r2,255
  80156c:	1080201c 	xori	r2,r2,128
  801570:	10bfe004 	addi	r2,r2,-128
  801574:	10000226 	beq	r2,zero,801580 <logic+0x3b0>
  801578:	00800044 	movi	r2,1
  80157c:	00000106 	br	801584 <logic+0x3b4>
  801580:	0005883a 	mov	r2,zero
  801584:	1007883a 	mov	r3,r2
  801588:	e0bffc17 	ldw	r2,-16(fp)
  80158c:	10c02d85 	stb	r3,182(r2)
  if (d->_g89) {
  801590:	e0bffc17 	ldw	r2,-16(fp)
  801594:	10802d83 	ldbu	r2,182(r2)
  801598:	10803fcc 	andi	r2,r2,255
  80159c:	1080201c 	xori	r2,r2,128
  8015a0:	10bfe004 	addi	r2,r2,-128
  8015a4:	10000326 	beq	r2,zero,8015b4 <logic+0x3e4>
    d->_Pacemaker_local__Atrig1 = 1;
  8015a8:	e0bffc17 	ldw	r2,-16(fp)
  8015ac:	00c00044 	movi	r3,1
  8015b0:	10c01e45 	stb	r3,121(r2)
  }
  d->_g88 = d->_g88 && !d->_cg88;
  8015b4:	e0bffc17 	ldw	r2,-16(fp)
  8015b8:	10802d43 	ldbu	r2,181(r2)
  8015bc:	10803fcc 	andi	r2,r2,255
  8015c0:	1080201c 	xori	r2,r2,128
  8015c4:	10bfe004 	addi	r2,r2,-128
  8015c8:	10000826 	beq	r2,zero,8015ec <logic+0x41c>
  8015cc:	e0bffc17 	ldw	r2,-16(fp)
  8015d0:	10803c43 	ldbu	r2,241(r2)
  8015d4:	10803fcc 	andi	r2,r2,255
  8015d8:	1080201c 	xori	r2,r2,128
  8015dc:	10bfe004 	addi	r2,r2,-128
  8015e0:	1000021e 	bne	r2,zero,8015ec <logic+0x41c>
  8015e4:	00800044 	movi	r2,1
  8015e8:	00000106 	br	8015f0 <logic+0x420>
  8015ec:	0005883a 	mov	r2,zero
  8015f0:	1007883a 	mov	r3,r2
  8015f4:	e0bffc17 	ldw	r2,-16(fp)
  8015f8:	10c02d45 	stb	r3,181(r2)
  d->_cg90 = d->AS == 1;
  8015fc:	e0bffc17 	ldw	r2,-16(fp)
  801600:	10801d03 	ldbu	r2,116(r2)
  801604:	10803fcc 	andi	r2,r2,255
  801608:	1080201c 	xori	r2,r2,128
  80160c:	10bfe004 	addi	r2,r2,-128
  801610:	10800060 	cmpeqi	r2,r2,1
  801614:	1007883a 	mov	r3,r2
  801618:	e0bffc17 	ldw	r2,-16(fp)
  80161c:	10c03bc5 	stb	r3,239(r2)
  d->_g91 = d->_g88 && d->_cg90;
  801620:	e0bffc17 	ldw	r2,-16(fp)
  801624:	10802d43 	ldbu	r2,181(r2)
  801628:	10803fcc 	andi	r2,r2,255
  80162c:	1080201c 	xori	r2,r2,128
  801630:	10bfe004 	addi	r2,r2,-128
  801634:	10000826 	beq	r2,zero,801658 <logic+0x488>
  801638:	e0bffc17 	ldw	r2,-16(fp)
  80163c:	10803bc3 	ldbu	r2,239(r2)
  801640:	10803fcc 	andi	r2,r2,255
  801644:	1080201c 	xori	r2,r2,128
  801648:	10bfe004 	addi	r2,r2,-128
  80164c:	10000226 	beq	r2,zero,801658 <logic+0x488>
  801650:	00800044 	movi	r2,1
  801654:	00000106 	br	80165c <logic+0x48c>
  801658:	0005883a 	mov	r2,zero
  80165c:	1007883a 	mov	r3,r2
  801660:	e0bffc17 	ldw	r2,-16(fp)
  801664:	10c02dc5 	stb	r3,183(r2)
  if (d->_g91) {
  801668:	e0bffc17 	ldw	r2,-16(fp)
  80166c:	10802dc3 	ldbu	r2,183(r2)
  801670:	10803fcc 	andi	r2,r2,255
  801674:	1080201c 	xori	r2,r2,128
  801678:	10bfe004 	addi	r2,r2,-128
  80167c:	10000326 	beq	r2,zero,80168c <logic+0x4bc>
    d->_Pacemaker_local__Atrig2 = 1;
  801680:	e0bffc17 	ldw	r2,-16(fp)
  801684:	00c00044 	movi	r3,1
  801688:	10c01e85 	stb	r3,122(r2)
  }
  d->sleepT = 1000.0;
  80168c:	e0fffc17 	ldw	r3,-16(fp)
  801690:	18001b15 	stw	zero,108(r3)
  801694:	009023f4 	movhi	r2,16527
  801698:	10900004 	addi	r2,r2,16384
  80169c:	18801c15 	stw	r2,112(r3)
  d->_g70 = d->_g64 || d->_g70;
  8016a0:	e0bffc17 	ldw	r2,-16(fp)
  8016a4:	10802a43 	ldbu	r2,169(r2)
  8016a8:	10803fcc 	andi	r2,r2,255
  8016ac:	1080201c 	xori	r2,r2,128
  8016b0:	10bfe004 	addi	r2,r2,-128
  8016b4:	1000061e 	bne	r2,zero,8016d0 <logic+0x500>
  8016b8:	e0bffc17 	ldw	r2,-16(fp)
  8016bc:	10802b43 	ldbu	r2,173(r2)
  8016c0:	10803fcc 	andi	r2,r2,255
  8016c4:	1080201c 	xori	r2,r2,128
  8016c8:	10bfe004 	addi	r2,r2,-128
  8016cc:	10000226 	beq	r2,zero,8016d8 <logic+0x508>
  8016d0:	00800044 	movi	r2,1
  8016d4:	00000106 	br	8016dc <logic+0x50c>
  8016d8:	0005883a 	mov	r2,zero
  8016dc:	1007883a 	mov	r3,r2
  8016e0:	e0bffc17 	ldw	r2,-16(fp)
  8016e4:	10c02b45 	stb	r3,173(r2)
  d->_cg65 = d->AEI_Clock < d->AEI;
  8016e8:	e0bffc17 	ldw	r2,-16(fp)
  8016ec:	14000817 	ldw	r16,32(r2)
  8016f0:	14400917 	ldw	r17,36(r2)
  8016f4:	e0bffc17 	ldw	r2,-16(fp)
  8016f8:	10800117 	ldw	r2,4(r2)
  8016fc:	1009883a 	mov	r4,r2
  801700:	08068dc0 	call	8068dc <__floatsidf>
  801704:	1009883a 	mov	r4,r2
  801708:	180b883a 	mov	r5,r3
  80170c:	04800044 	movi	r18,1
  801710:	200d883a 	mov	r6,r4
  801714:	280f883a 	mov	r7,r5
  801718:	8009883a 	mov	r4,r16
  80171c:	880b883a 	mov	r5,r17
  801720:	0805eec0 	call	805eec <__ledf2>
  801724:	10000116 	blt	r2,zero,80172c <logic+0x55c>
  801728:	0025883a 	mov	r18,zero
  80172c:	9007883a 	mov	r3,r18
  801730:	e0bffc17 	ldw	r2,-16(fp)
  801734:	10c03985 	stb	r3,230(r2)
  d->_g64 = d->_g70 && d->_cg65;
  801738:	e0bffc17 	ldw	r2,-16(fp)
  80173c:	10802b43 	ldbu	r2,173(r2)
  801740:	10803fcc 	andi	r2,r2,255
  801744:	1080201c 	xori	r2,r2,128
  801748:	10bfe004 	addi	r2,r2,-128
  80174c:	10000826 	beq	r2,zero,801770 <logic+0x5a0>
  801750:	e0bffc17 	ldw	r2,-16(fp)
  801754:	10803983 	ldbu	r2,230(r2)
  801758:	10803fcc 	andi	r2,r2,255
  80175c:	1080201c 	xori	r2,r2,128
  801760:	10bfe004 	addi	r2,r2,-128
  801764:	10000226 	beq	r2,zero,801770 <logic+0x5a0>
  801768:	00800044 	movi	r2,1
  80176c:	00000106 	br	801774 <logic+0x5a4>
  801770:	0005883a 	mov	r2,zero
  801774:	1007883a 	mov	r3,r2
  801778:	e0bffc17 	ldw	r2,-16(fp)
  80177c:	10c02a45 	stb	r3,169(r2)
  if (d->_g64) {
  801780:	e0bffc17 	ldw	r2,-16(fp)
  801784:	10802a43 	ldbu	r2,169(r2)
  801788:	10803fcc 	andi	r2,r2,255
  80178c:	1080201c 	xori	r2,r2,128
  801790:	10bfe004 	addi	r2,r2,-128
  801794:	10003426 	beq	r2,zero,801868 <logic+0x698>
    d->sleepT = (d->sleepT < (d->AEI - d->AEI_Clock)) ? d->sleepT : (d->AEI - d->AEI_Clock);
  801798:	e0bffc17 	ldw	r2,-16(fp)
  80179c:	14001b17 	ldw	r16,108(r2)
  8017a0:	14401c17 	ldw	r17,112(r2)
  8017a4:	e0bffc17 	ldw	r2,-16(fp)
  8017a8:	10800117 	ldw	r2,4(r2)
  8017ac:	1009883a 	mov	r4,r2
  8017b0:	08068dc0 	call	8068dc <__floatsidf>
  8017b4:	1011883a 	mov	r8,r2
  8017b8:	1813883a 	mov	r9,r3
  8017bc:	e13ffc17 	ldw	r4,-16(fp)
  8017c0:	20800817 	ldw	r2,32(r4)
  8017c4:	20c00917 	ldw	r3,36(r4)
  8017c8:	100d883a 	mov	r6,r2
  8017cc:	180f883a 	mov	r7,r3
  8017d0:	4009883a 	mov	r4,r8
  8017d4:	480b883a 	mov	r5,r9
  8017d8:	0805fe00 	call	805fe0 <__subdf3>
  8017dc:	1009883a 	mov	r4,r2
  8017e0:	180b883a 	mov	r5,r3
  8017e4:	2005883a 	mov	r2,r4
  8017e8:	2807883a 	mov	r3,r5
  8017ec:	100d883a 	mov	r6,r2
  8017f0:	180f883a 	mov	r7,r3
  8017f4:	8009883a 	mov	r4,r16
  8017f8:	880b883a 	mov	r5,r17
  8017fc:	0805eec0 	call	805eec <__ledf2>
  801800:	1000040e 	bge	r2,zero,801814 <logic+0x644>
  801804:	e13ffc17 	ldw	r4,-16(fp)
  801808:	20801b17 	ldw	r2,108(r4)
  80180c:	20c01c17 	ldw	r3,112(r4)
  801810:	00001206 	br	80185c <logic+0x68c>
  801814:	e0bffc17 	ldw	r2,-16(fp)
  801818:	10800117 	ldw	r2,4(r2)
  80181c:	1009883a 	mov	r4,r2
  801820:	08068dc0 	call	8068dc <__floatsidf>
  801824:	1011883a 	mov	r8,r2
  801828:	1813883a 	mov	r9,r3
  80182c:	e13ffc17 	ldw	r4,-16(fp)
  801830:	20800817 	ldw	r2,32(r4)
  801834:	20c00917 	ldw	r3,36(r4)
  801838:	100d883a 	mov	r6,r2
  80183c:	180f883a 	mov	r7,r3
  801840:	4009883a 	mov	r4,r8
  801844:	480b883a 	mov	r5,r9
  801848:	0805fe00 	call	805fe0 <__subdf3>
  80184c:	1009883a 	mov	r4,r2
  801850:	180b883a 	mov	r5,r3
  801854:	2005883a 	mov	r2,r4
  801858:	2807883a 	mov	r3,r5
  80185c:	e13ffc17 	ldw	r4,-16(fp)
  801860:	20801b15 	stw	r2,108(r4)
  801864:	20c01c15 	stw	r3,112(r4)
  }
  d->_cg66 = d->_Pacemaker_local__Atrig || d->_Pacemaker_local__Atrig1 || d->_Pacemaker_local__Atrig2;
  801868:	e0bffc17 	ldw	r2,-16(fp)
  80186c:	10801e03 	ldbu	r2,120(r2)
  801870:	10803fcc 	andi	r2,r2,255
  801874:	1080201c 	xori	r2,r2,128
  801878:	10bfe004 	addi	r2,r2,-128
  80187c:	10000c1e 	bne	r2,zero,8018b0 <logic+0x6e0>
  801880:	e0bffc17 	ldw	r2,-16(fp)
  801884:	10801e43 	ldbu	r2,121(r2)
  801888:	10803fcc 	andi	r2,r2,255
  80188c:	1080201c 	xori	r2,r2,128
  801890:	10bfe004 	addi	r2,r2,-128
  801894:	1000061e 	bne	r2,zero,8018b0 <logic+0x6e0>
  801898:	e0bffc17 	ldw	r2,-16(fp)
  80189c:	10801e83 	ldbu	r2,122(r2)
  8018a0:	10803fcc 	andi	r2,r2,255
  8018a4:	1080201c 	xori	r2,r2,128
  8018a8:	10bfe004 	addi	r2,r2,-128
  8018ac:	10000226 	beq	r2,zero,8018b8 <logic+0x6e8>
  8018b0:	00800044 	movi	r2,1
  8018b4:	00000106 	br	8018bc <logic+0x6ec>
  8018b8:	0005883a 	mov	r2,zero
  8018bc:	1007883a 	mov	r3,r2
  8018c0:	e0bffc17 	ldw	r2,-16(fp)
  8018c4:	10c03945 	stb	r3,229(r2)
  d->_g65 = d->_g70 && !d->_cg65;
  8018c8:	e0bffc17 	ldw	r2,-16(fp)
  8018cc:	10802b43 	ldbu	r2,173(r2)
  8018d0:	10803fcc 	andi	r2,r2,255
  8018d4:	1080201c 	xori	r2,r2,128
  8018d8:	10bfe004 	addi	r2,r2,-128
  8018dc:	10000826 	beq	r2,zero,801900 <logic+0x730>
  8018e0:	e0bffc17 	ldw	r2,-16(fp)
  8018e4:	10803983 	ldbu	r2,230(r2)
  8018e8:	10803fcc 	andi	r2,r2,255
  8018ec:	1080201c 	xori	r2,r2,128
  8018f0:	10bfe004 	addi	r2,r2,-128
  8018f4:	1000021e 	bne	r2,zero,801900 <logic+0x730>
  8018f8:	00800044 	movi	r2,1
  8018fc:	00000106 	br	801904 <logic+0x734>
  801900:	0005883a 	mov	r2,zero
  801904:	1007883a 	mov	r3,r2
  801908:	e0bffc17 	ldw	r2,-16(fp)
  80190c:	10c02a85 	stb	r3,170(r2)
  d->_cg68 = d->_Pacemaker_local__Atrig || d->_Pacemaker_local__Atrig1 || d->_Pacemaker_local__Atrig2;
  801910:	e0bffc17 	ldw	r2,-16(fp)
  801914:	10801e03 	ldbu	r2,120(r2)
  801918:	10803fcc 	andi	r2,r2,255
  80191c:	1080201c 	xori	r2,r2,128
  801920:	10bfe004 	addi	r2,r2,-128
  801924:	10000c1e 	bne	r2,zero,801958 <logic+0x788>
  801928:	e0bffc17 	ldw	r2,-16(fp)
  80192c:	10801e43 	ldbu	r2,121(r2)
  801930:	10803fcc 	andi	r2,r2,255
  801934:	1080201c 	xori	r2,r2,128
  801938:	10bfe004 	addi	r2,r2,-128
  80193c:	1000061e 	bne	r2,zero,801958 <logic+0x788>
  801940:	e0bffc17 	ldw	r2,-16(fp)
  801944:	10801e83 	ldbu	r2,122(r2)
  801948:	10803fcc 	andi	r2,r2,255
  80194c:	1080201c 	xori	r2,r2,128
  801950:	10bfe004 	addi	r2,r2,-128
  801954:	10000226 	beq	r2,zero,801960 <logic+0x790>
  801958:	00800044 	movi	r2,1
  80195c:	00000106 	br	801964 <logic+0x794>
  801960:	0005883a 	mov	r2,zero
  801964:	1007883a 	mov	r3,r2
  801968:	e0bffc17 	ldw	r2,-16(fp)
  80196c:	10c039c5 	stb	r3,231(r2)
  d->_g67 = d->_g64 && d->_cg66 || d->_g65 && d->_cg68;
  801970:	e0bffc17 	ldw	r2,-16(fp)
  801974:	10802a43 	ldbu	r2,169(r2)
  801978:	10803fcc 	andi	r2,r2,255
  80197c:	1080201c 	xori	r2,r2,128
  801980:	10bfe004 	addi	r2,r2,-128
  801984:	10000626 	beq	r2,zero,8019a0 <logic+0x7d0>
  801988:	e0bffc17 	ldw	r2,-16(fp)
  80198c:	10803943 	ldbu	r2,229(r2)
  801990:	10803fcc 	andi	r2,r2,255
  801994:	1080201c 	xori	r2,r2,128
  801998:	10bfe004 	addi	r2,r2,-128
  80199c:	10000c1e 	bne	r2,zero,8019d0 <logic+0x800>
  8019a0:	e0bffc17 	ldw	r2,-16(fp)
  8019a4:	10802a83 	ldbu	r2,170(r2)
  8019a8:	10803fcc 	andi	r2,r2,255
  8019ac:	1080201c 	xori	r2,r2,128
  8019b0:	10bfe004 	addi	r2,r2,-128
  8019b4:	10000826 	beq	r2,zero,8019d8 <logic+0x808>
  8019b8:	e0bffc17 	ldw	r2,-16(fp)
  8019bc:	108039c3 	ldbu	r2,231(r2)
  8019c0:	10803fcc 	andi	r2,r2,255
  8019c4:	1080201c 	xori	r2,r2,128
  8019c8:	10bfe004 	addi	r2,r2,-128
  8019cc:	10000226 	beq	r2,zero,8019d8 <logic+0x808>
  8019d0:	00800044 	movi	r2,1
  8019d4:	00000106 	br	8019dc <logic+0x80c>
  8019d8:	0005883a 	mov	r2,zero
  8019dc:	1007883a 	mov	r3,r2
  8019e0:	e0bffc17 	ldw	r2,-16(fp)
  8019e4:	10c02b05 	stb	r3,172(r2)
  d->_g81 = d->_pg57;
  8019e8:	e0bffc17 	ldw	r2,-16(fp)
  8019ec:	10c04103 	ldbu	r3,260(r2)
  8019f0:	e0bffc17 	ldw	r2,-16(fp)
  8019f4:	10c02c45 	stb	r3,177(r2)
  d->_g75 = d->_pg55;
  8019f8:	e0bffc17 	ldw	r2,-16(fp)
  8019fc:	10c04143 	ldbu	r3,261(r2)
  801a00:	e0bffc17 	ldw	r2,-16(fp)
  801a04:	10c02b85 	stb	r3,174(r2)
  d->_g78_e2 = !(d->_g81 || d->_g75);
  801a08:	e0bffc17 	ldw	r2,-16(fp)
  801a0c:	10802c43 	ldbu	r2,177(r2)
  801a10:	10803fcc 	andi	r2,r2,255
  801a14:	1080201c 	xori	r2,r2,128
  801a18:	10bfe004 	addi	r2,r2,-128
  801a1c:	1000081e 	bne	r2,zero,801a40 <logic+0x870>
  801a20:	e0bffc17 	ldw	r2,-16(fp)
  801a24:	10802b83 	ldbu	r2,174(r2)
  801a28:	10803fcc 	andi	r2,r2,255
  801a2c:	1080201c 	xori	r2,r2,128
  801a30:	10bfe004 	addi	r2,r2,-128
  801a34:	1000021e 	bne	r2,zero,801a40 <logic+0x870>
  801a38:	00800044 	movi	r2,1
  801a3c:	00000106 	br	801a44 <logic+0x874>
  801a40:	0005883a 	mov	r2,zero
  801a44:	1007883a 	mov	r3,r2
  801a48:	e0bffc17 	ldw	r2,-16(fp)
  801a4c:	10c03ec5 	stb	r3,251(r2)
  d->_g81 = d->_g75 || d->_g81;
  801a50:	e0bffc17 	ldw	r2,-16(fp)
  801a54:	10802b83 	ldbu	r2,174(r2)
  801a58:	10803fcc 	andi	r2,r2,255
  801a5c:	1080201c 	xori	r2,r2,128
  801a60:	10bfe004 	addi	r2,r2,-128
  801a64:	1000061e 	bne	r2,zero,801a80 <logic+0x8b0>
  801a68:	e0bffc17 	ldw	r2,-16(fp)
  801a6c:	10802c43 	ldbu	r2,177(r2)
  801a70:	10803fcc 	andi	r2,r2,255
  801a74:	1080201c 	xori	r2,r2,128
  801a78:	10bfe004 	addi	r2,r2,-128
  801a7c:	10000226 	beq	r2,zero,801a88 <logic+0x8b8>
  801a80:	00800044 	movi	r2,1
  801a84:	00000106 	br	801a8c <logic+0x8bc>
  801a88:	0005883a 	mov	r2,zero
  801a8c:	1007883a 	mov	r3,r2
  801a90:	e0bffc17 	ldw	r2,-16(fp)
  801a94:	10c02c45 	stb	r3,177(r2)
  d->_cg76 = d->PVARP_Clock < d->PVARP;
  801a98:	e0bffc17 	ldw	r2,-16(fp)
  801a9c:	14000e17 	ldw	r16,56(r2)
  801aa0:	14400f17 	ldw	r17,60(r2)
  801aa4:	e0bffc17 	ldw	r2,-16(fp)
  801aa8:	10800217 	ldw	r2,8(r2)
  801aac:	1009883a 	mov	r4,r2
  801ab0:	08068dc0 	call	8068dc <__floatsidf>
  801ab4:	1009883a 	mov	r4,r2
  801ab8:	180b883a 	mov	r5,r3
  801abc:	04800044 	movi	r18,1
  801ac0:	200d883a 	mov	r6,r4
  801ac4:	280f883a 	mov	r7,r5
  801ac8:	8009883a 	mov	r4,r16
  801acc:	880b883a 	mov	r5,r17
  801ad0:	0805eec0 	call	805eec <__ledf2>
  801ad4:	10000116 	blt	r2,zero,801adc <logic+0x90c>
  801ad8:	0025883a 	mov	r18,zero
  801adc:	9007883a 	mov	r3,r18
  801ae0:	e0bffc17 	ldw	r2,-16(fp)
  801ae4:	10c03b05 	stb	r3,236(r2)
  d->_g75 = d->_g81 && d->_cg76;
  801ae8:	e0bffc17 	ldw	r2,-16(fp)
  801aec:	10802c43 	ldbu	r2,177(r2)
  801af0:	10803fcc 	andi	r2,r2,255
  801af4:	1080201c 	xori	r2,r2,128
  801af8:	10bfe004 	addi	r2,r2,-128
  801afc:	10000826 	beq	r2,zero,801b20 <logic+0x950>
  801b00:	e0bffc17 	ldw	r2,-16(fp)
  801b04:	10803b03 	ldbu	r2,236(r2)
  801b08:	10803fcc 	andi	r2,r2,255
  801b0c:	1080201c 	xori	r2,r2,128
  801b10:	10bfe004 	addi	r2,r2,-128
  801b14:	10000226 	beq	r2,zero,801b20 <logic+0x950>
  801b18:	00800044 	movi	r2,1
  801b1c:	00000106 	br	801b24 <logic+0x954>
  801b20:	0005883a 	mov	r2,zero
  801b24:	1007883a 	mov	r3,r2
  801b28:	e0bffc17 	ldw	r2,-16(fp)
  801b2c:	10c02b85 	stb	r3,174(r2)
  if (d->_g75) {
  801b30:	e0bffc17 	ldw	r2,-16(fp)
  801b34:	10802b83 	ldbu	r2,174(r2)
  801b38:	10803fcc 	andi	r2,r2,255
  801b3c:	1080201c 	xori	r2,r2,128
  801b40:	10bfe004 	addi	r2,r2,-128
  801b44:	10003426 	beq	r2,zero,801c18 <logic+0xa48>
    d->sleepT = (d->sleepT < (d->PVARP - d->PVARP_Clock)) ? d->sleepT : (d->PVARP - d->PVARP_Clock);
  801b48:	e0bffc17 	ldw	r2,-16(fp)
  801b4c:	14001b17 	ldw	r16,108(r2)
  801b50:	14401c17 	ldw	r17,112(r2)
  801b54:	e0bffc17 	ldw	r2,-16(fp)
  801b58:	10800217 	ldw	r2,8(r2)
  801b5c:	1009883a 	mov	r4,r2
  801b60:	08068dc0 	call	8068dc <__floatsidf>
  801b64:	1011883a 	mov	r8,r2
  801b68:	1813883a 	mov	r9,r3
  801b6c:	e13ffc17 	ldw	r4,-16(fp)
  801b70:	20800e17 	ldw	r2,56(r4)
  801b74:	20c00f17 	ldw	r3,60(r4)
  801b78:	100d883a 	mov	r6,r2
  801b7c:	180f883a 	mov	r7,r3
  801b80:	4009883a 	mov	r4,r8
  801b84:	480b883a 	mov	r5,r9
  801b88:	0805fe00 	call	805fe0 <__subdf3>
  801b8c:	1009883a 	mov	r4,r2
  801b90:	180b883a 	mov	r5,r3
  801b94:	2005883a 	mov	r2,r4
  801b98:	2807883a 	mov	r3,r5
  801b9c:	100d883a 	mov	r6,r2
  801ba0:	180f883a 	mov	r7,r3
  801ba4:	8009883a 	mov	r4,r16
  801ba8:	880b883a 	mov	r5,r17
  801bac:	0805eec0 	call	805eec <__ledf2>
  801bb0:	1000040e 	bge	r2,zero,801bc4 <logic+0x9f4>
  801bb4:	e13ffc17 	ldw	r4,-16(fp)
  801bb8:	20801b17 	ldw	r2,108(r4)
  801bbc:	20c01c17 	ldw	r3,112(r4)
  801bc0:	00001206 	br	801c0c <logic+0xa3c>
  801bc4:	e0bffc17 	ldw	r2,-16(fp)
  801bc8:	10800217 	ldw	r2,8(r2)
  801bcc:	1009883a 	mov	r4,r2
  801bd0:	08068dc0 	call	8068dc <__floatsidf>
  801bd4:	1011883a 	mov	r8,r2
  801bd8:	1813883a 	mov	r9,r3
  801bdc:	e13ffc17 	ldw	r4,-16(fp)
  801be0:	20800e17 	ldw	r2,56(r4)
  801be4:	20c00f17 	ldw	r3,60(r4)
  801be8:	100d883a 	mov	r6,r2
  801bec:	180f883a 	mov	r7,r3
  801bf0:	4009883a 	mov	r4,r8
  801bf4:	480b883a 	mov	r5,r9
  801bf8:	0805fe00 	call	805fe0 <__subdf3>
  801bfc:	1009883a 	mov	r4,r2
  801c00:	180b883a 	mov	r5,r3
  801c04:	2005883a 	mov	r2,r4
  801c08:	2807883a 	mov	r3,r5
  801c0c:	e13ffc17 	ldw	r4,-16(fp)
  801c10:	20801b15 	stw	r2,108(r4)
  801c14:	20c01c15 	stw	r3,112(r4)
  }
  d->_cg77 = d->_Pacemaker_local__Atrig || d->_Pacemaker_local__Atrig1 || d->_Pacemaker_local__Atrig2;
  801c18:	e0bffc17 	ldw	r2,-16(fp)
  801c1c:	10801e03 	ldbu	r2,120(r2)
  801c20:	10803fcc 	andi	r2,r2,255
  801c24:	1080201c 	xori	r2,r2,128
  801c28:	10bfe004 	addi	r2,r2,-128
  801c2c:	10000c1e 	bne	r2,zero,801c60 <logic+0xa90>
  801c30:	e0bffc17 	ldw	r2,-16(fp)
  801c34:	10801e43 	ldbu	r2,121(r2)
  801c38:	10803fcc 	andi	r2,r2,255
  801c3c:	1080201c 	xori	r2,r2,128
  801c40:	10bfe004 	addi	r2,r2,-128
  801c44:	1000061e 	bne	r2,zero,801c60 <logic+0xa90>
  801c48:	e0bffc17 	ldw	r2,-16(fp)
  801c4c:	10801e83 	ldbu	r2,122(r2)
  801c50:	10803fcc 	andi	r2,r2,255
  801c54:	1080201c 	xori	r2,r2,128
  801c58:	10bfe004 	addi	r2,r2,-128
  801c5c:	10000226 	beq	r2,zero,801c68 <logic+0xa98>
  801c60:	00800044 	movi	r2,1
  801c64:	00000106 	br	801c6c <logic+0xa9c>
  801c68:	0005883a 	mov	r2,zero
  801c6c:	1007883a 	mov	r3,r2
  801c70:	e0bffc17 	ldw	r2,-16(fp)
  801c74:	10c03ac5 	stb	r3,235(r2)
  d->_g76 = d->_g81 && !d->_cg76;
  801c78:	e0bffc17 	ldw	r2,-16(fp)
  801c7c:	10802c43 	ldbu	r2,177(r2)
  801c80:	10803fcc 	andi	r2,r2,255
  801c84:	1080201c 	xori	r2,r2,128
  801c88:	10bfe004 	addi	r2,r2,-128
  801c8c:	10000826 	beq	r2,zero,801cb0 <logic+0xae0>
  801c90:	e0bffc17 	ldw	r2,-16(fp)
  801c94:	10803b03 	ldbu	r2,236(r2)
  801c98:	10803fcc 	andi	r2,r2,255
  801c9c:	1080201c 	xori	r2,r2,128
  801ca0:	10bfe004 	addi	r2,r2,-128
  801ca4:	1000021e 	bne	r2,zero,801cb0 <logic+0xae0>
  801ca8:	00800044 	movi	r2,1
  801cac:	00000106 	br	801cb4 <logic+0xae4>
  801cb0:	0005883a 	mov	r2,zero
  801cb4:	1007883a 	mov	r3,r2
  801cb8:	e0bffc17 	ldw	r2,-16(fp)
  801cbc:	10c02bc5 	stb	r3,175(r2)
  d->_cg79 = d->_Pacemaker_local__Atrig || d->_Pacemaker_local__Atrig1 || d->_Pacemaker_local__Atrig2;
  801cc0:	e0bffc17 	ldw	r2,-16(fp)
  801cc4:	10801e03 	ldbu	r2,120(r2)
  801cc8:	10803fcc 	andi	r2,r2,255
  801ccc:	1080201c 	xori	r2,r2,128
  801cd0:	10bfe004 	addi	r2,r2,-128
  801cd4:	10000c1e 	bne	r2,zero,801d08 <logic+0xb38>
  801cd8:	e0bffc17 	ldw	r2,-16(fp)
  801cdc:	10801e43 	ldbu	r2,121(r2)
  801ce0:	10803fcc 	andi	r2,r2,255
  801ce4:	1080201c 	xori	r2,r2,128
  801ce8:	10bfe004 	addi	r2,r2,-128
  801cec:	1000061e 	bne	r2,zero,801d08 <logic+0xb38>
  801cf0:	e0bffc17 	ldw	r2,-16(fp)
  801cf4:	10801e83 	ldbu	r2,122(r2)
  801cf8:	10803fcc 	andi	r2,r2,255
  801cfc:	1080201c 	xori	r2,r2,128
  801d00:	10bfe004 	addi	r2,r2,-128
  801d04:	10000226 	beq	r2,zero,801d10 <logic+0xb40>
  801d08:	00800044 	movi	r2,1
  801d0c:	00000106 	br	801d14 <logic+0xb44>
  801d10:	0005883a 	mov	r2,zero
  801d14:	1007883a 	mov	r3,r2
  801d18:	e0bffc17 	ldw	r2,-16(fp)
  801d1c:	10c03b45 	stb	r3,237(r2)
  d->_g78 = d->_g75 && d->_cg77 || d->_g76 && d->_cg79;
  801d20:	e0bffc17 	ldw	r2,-16(fp)
  801d24:	10802b83 	ldbu	r2,174(r2)
  801d28:	10803fcc 	andi	r2,r2,255
  801d2c:	1080201c 	xori	r2,r2,128
  801d30:	10bfe004 	addi	r2,r2,-128
  801d34:	10000626 	beq	r2,zero,801d50 <logic+0xb80>
  801d38:	e0bffc17 	ldw	r2,-16(fp)
  801d3c:	10803ac3 	ldbu	r2,235(r2)
  801d40:	10803fcc 	andi	r2,r2,255
  801d44:	1080201c 	xori	r2,r2,128
  801d48:	10bfe004 	addi	r2,r2,-128
  801d4c:	10000c1e 	bne	r2,zero,801d80 <logic+0xbb0>
  801d50:	e0bffc17 	ldw	r2,-16(fp)
  801d54:	10802bc3 	ldbu	r2,175(r2)
  801d58:	10803fcc 	andi	r2,r2,255
  801d5c:	1080201c 	xori	r2,r2,128
  801d60:	10bfe004 	addi	r2,r2,-128
  801d64:	10000826 	beq	r2,zero,801d88 <logic+0xbb8>
  801d68:	e0bffc17 	ldw	r2,-16(fp)
  801d6c:	10803b43 	ldbu	r2,237(r2)
  801d70:	10803fcc 	andi	r2,r2,255
  801d74:	1080201c 	xori	r2,r2,128
  801d78:	10bfe004 	addi	r2,r2,-128
  801d7c:	10000226 	beq	r2,zero,801d88 <logic+0xbb8>
  801d80:	00800044 	movi	r2,1
  801d84:	00000106 	br	801d8c <logic+0xbbc>
  801d88:	0005883a 	mov	r2,zero
  801d8c:	1007883a 	mov	r3,r2
  801d90:	e0bffc17 	ldw	r2,-16(fp)
  801d94:	10c02c05 	stb	r3,176(r2)
  d->_g85 = !d->_g85;
  801d98:	e0bffc17 	ldw	r2,-16(fp)
  801d9c:	10802c83 	ldbu	r2,178(r2)
  801da0:	10803fcc 	andi	r2,r2,255
  801da4:	1080201c 	xori	r2,r2,128
  801da8:	10bfe004 	addi	r2,r2,-128
  801dac:	1005003a 	cmpeq	r2,r2,zero
  801db0:	1007883a 	mov	r3,r2
  801db4:	e0bffc17 	ldw	r2,-16(fp)
  801db8:	10c02c85 	stb	r3,178(r2)
  d->_g91 = d->_g86 || d->_g89 || d->_g91;
  801dbc:	e0bffc17 	ldw	r2,-16(fp)
  801dc0:	10802cc3 	ldbu	r2,179(r2)
  801dc4:	10803fcc 	andi	r2,r2,255
  801dc8:	1080201c 	xori	r2,r2,128
  801dcc:	10bfe004 	addi	r2,r2,-128
  801dd0:	10000c1e 	bne	r2,zero,801e04 <logic+0xc34>
  801dd4:	e0bffc17 	ldw	r2,-16(fp)
  801dd8:	10802d83 	ldbu	r2,182(r2)
  801ddc:	10803fcc 	andi	r2,r2,255
  801de0:	1080201c 	xori	r2,r2,128
  801de4:	10bfe004 	addi	r2,r2,-128
  801de8:	1000061e 	bne	r2,zero,801e04 <logic+0xc34>
  801dec:	e0bffc17 	ldw	r2,-16(fp)
  801df0:	10802dc3 	ldbu	r2,183(r2)
  801df4:	10803fcc 	andi	r2,r2,255
  801df8:	1080201c 	xori	r2,r2,128
  801dfc:	10bfe004 	addi	r2,r2,-128
  801e00:	10000226 	beq	r2,zero,801e0c <logic+0xc3c>
  801e04:	00800044 	movi	r2,1
  801e08:	00000106 	br	801e10 <logic+0xc40>
  801e0c:	0005883a 	mov	r2,zero
  801e10:	1007883a 	mov	r3,r2
  801e14:	e0bffc17 	ldw	r2,-16(fp)
  801e18:	10c02dc5 	stb	r3,183(r2)
  d->_g89 = (d->_g67_e1 || d->_g67) && (d->_g78_e2 || d->_g78) && (d->_g85 || d->_g91) && (d->_g67 || d->_g78 || d->_g91);
  801e1c:	e0bffc17 	ldw	r2,-16(fp)
  801e20:	10803e83 	ldbu	r2,250(r2)
  801e24:	10803fcc 	andi	r2,r2,255
  801e28:	1080201c 	xori	r2,r2,128
  801e2c:	10bfe004 	addi	r2,r2,-128
  801e30:	1000061e 	bne	r2,zero,801e4c <logic+0xc7c>
  801e34:	e0bffc17 	ldw	r2,-16(fp)
  801e38:	10802b03 	ldbu	r2,172(r2)
  801e3c:	10803fcc 	andi	r2,r2,255
  801e40:	1080201c 	xori	r2,r2,128
  801e44:	10bfe004 	addi	r2,r2,-128
  801e48:	10002c26 	beq	r2,zero,801efc <logic+0xd2c>
  801e4c:	e0bffc17 	ldw	r2,-16(fp)
  801e50:	10803ec3 	ldbu	r2,251(r2)
  801e54:	10803fcc 	andi	r2,r2,255
  801e58:	1080201c 	xori	r2,r2,128
  801e5c:	10bfe004 	addi	r2,r2,-128
  801e60:	1000061e 	bne	r2,zero,801e7c <logic+0xcac>
  801e64:	e0bffc17 	ldw	r2,-16(fp)
  801e68:	10802c03 	ldbu	r2,176(r2)
  801e6c:	10803fcc 	andi	r2,r2,255
  801e70:	1080201c 	xori	r2,r2,128
  801e74:	10bfe004 	addi	r2,r2,-128
  801e78:	10002026 	beq	r2,zero,801efc <logic+0xd2c>
  801e7c:	e0bffc17 	ldw	r2,-16(fp)
  801e80:	10802c83 	ldbu	r2,178(r2)
  801e84:	10803fcc 	andi	r2,r2,255
  801e88:	1080201c 	xori	r2,r2,128
  801e8c:	10bfe004 	addi	r2,r2,-128
  801e90:	1000061e 	bne	r2,zero,801eac <logic+0xcdc>
  801e94:	e0bffc17 	ldw	r2,-16(fp)
  801e98:	10802dc3 	ldbu	r2,183(r2)
  801e9c:	10803fcc 	andi	r2,r2,255
  801ea0:	1080201c 	xori	r2,r2,128
  801ea4:	10bfe004 	addi	r2,r2,-128
  801ea8:	10001426 	beq	r2,zero,801efc <logic+0xd2c>
  801eac:	e0bffc17 	ldw	r2,-16(fp)
  801eb0:	10802b03 	ldbu	r2,172(r2)
  801eb4:	10803fcc 	andi	r2,r2,255
  801eb8:	1080201c 	xori	r2,r2,128
  801ebc:	10bfe004 	addi	r2,r2,-128
  801ec0:	10000c1e 	bne	r2,zero,801ef4 <logic+0xd24>
  801ec4:	e0bffc17 	ldw	r2,-16(fp)
  801ec8:	10802c03 	ldbu	r2,176(r2)
  801ecc:	10803fcc 	andi	r2,r2,255
  801ed0:	1080201c 	xori	r2,r2,128
  801ed4:	10bfe004 	addi	r2,r2,-128
  801ed8:	1000061e 	bne	r2,zero,801ef4 <logic+0xd24>
  801edc:	e0bffc17 	ldw	r2,-16(fp)
  801ee0:	10802dc3 	ldbu	r2,183(r2)
  801ee4:	10803fcc 	andi	r2,r2,255
  801ee8:	1080201c 	xori	r2,r2,128
  801eec:	10bfe004 	addi	r2,r2,-128
  801ef0:	10000226 	beq	r2,zero,801efc <logic+0xd2c>
  801ef4:	00800044 	movi	r2,1
  801ef8:	00000106 	br	801f00 <logic+0xd30>
  801efc:	0005883a 	mov	r2,zero
  801f00:	1007883a 	mov	r3,r2
  801f04:	e0bffc17 	ldw	r2,-16(fp)
  801f08:	10c02d85 	stb	r3,182(r2)
  d->_cg92 = d->_Pacemaker_local__Atrig;
  801f0c:	e0bffc17 	ldw	r2,-16(fp)
  801f10:	10c01e03 	ldbu	r3,120(r2)
  801f14:	e0bffc17 	ldw	r2,-16(fp)
  801f18:	10c03c85 	stb	r3,242(r2)
  d->_g86 = d->_g89 && d->_cg92;
  801f1c:	e0bffc17 	ldw	r2,-16(fp)
  801f20:	10802d83 	ldbu	r2,182(r2)
  801f24:	10803fcc 	andi	r2,r2,255
  801f28:	1080201c 	xori	r2,r2,128
  801f2c:	10bfe004 	addi	r2,r2,-128
  801f30:	10000826 	beq	r2,zero,801f54 <logic+0xd84>
  801f34:	e0bffc17 	ldw	r2,-16(fp)
  801f38:	10803c83 	ldbu	r2,242(r2)
  801f3c:	10803fcc 	andi	r2,r2,255
  801f40:	1080201c 	xori	r2,r2,128
  801f44:	10bfe004 	addi	r2,r2,-128
  801f48:	10000226 	beq	r2,zero,801f54 <logic+0xd84>
  801f4c:	00800044 	movi	r2,1
  801f50:	00000106 	br	801f58 <logic+0xd88>
  801f54:	0005883a 	mov	r2,zero
  801f58:	1007883a 	mov	r3,r2
  801f5c:	e0bffc17 	ldw	r2,-16(fp)
  801f60:	10c02cc5 	stb	r3,179(r2)
  if (d->_g86) {
  801f64:	e0bffc17 	ldw	r2,-16(fp)
  801f68:	10802cc3 	ldbu	r2,179(r2)
  801f6c:	10803fcc 	andi	r2,r2,255
  801f70:	1080201c 	xori	r2,r2,128
  801f74:	10bfe004 	addi	r2,r2,-128
  801f78:	10000526 	beq	r2,zero,801f90 <logic+0xdc0>
    d->_taken_transitions[0] += 1;
  801f7c:	e0bffc17 	ldw	r2,-16(fp)
  801f80:	10801217 	ldw	r2,72(r2)
  801f84:	10c00044 	addi	r3,r2,1
  801f88:	e0bffc17 	ldw	r2,-16(fp)
  801f8c:	10c01215 	stw	r3,72(r2)
  }
  d->_g87 = d->_pg67_e1;
  801f90:	e0bffc17 	ldw	r2,-16(fp)
  801f94:	10c04183 	ldbu	r3,262(r2)
  801f98:	e0bffc17 	ldw	r2,-16(fp)
  801f9c:	10c02d05 	stb	r3,180(r2)
  d->_g67_e1 = d->_GO || d->_g87;
  801fa0:	e0bffc17 	ldw	r2,-16(fp)
  801fa4:	10803183 	ldbu	r2,198(r2)
  801fa8:	10803fcc 	andi	r2,r2,255
  801fac:	1080201c 	xori	r2,r2,128
  801fb0:	10bfe004 	addi	r2,r2,-128
  801fb4:	1000061e 	bne	r2,zero,801fd0 <logic+0xe00>
  801fb8:	e0bffc17 	ldw	r2,-16(fp)
  801fbc:	10802d03 	ldbu	r2,180(r2)
  801fc0:	10803fcc 	andi	r2,r2,255
  801fc4:	1080201c 	xori	r2,r2,128
  801fc8:	10bfe004 	addi	r2,r2,-128
  801fcc:	10000226 	beq	r2,zero,801fd8 <logic+0xe08>
  801fd0:	00800044 	movi	r2,1
  801fd4:	00000106 	br	801fdc <logic+0xe0c>
  801fd8:	0005883a 	mov	r2,zero
  801fdc:	1007883a 	mov	r3,r2
  801fe0:	e0bffc17 	ldw	r2,-16(fp)
  801fe4:	10c03e85 	stb	r3,250(r2)
  if (d->_g67_e1) {
  801fe8:	e0bffc17 	ldw	r2,-16(fp)
  801fec:	10803e83 	ldbu	r2,250(r2)
  801ff0:	10803fcc 	andi	r2,r2,255
  801ff4:	1080201c 	xori	r2,r2,128
  801ff8:	10bfe004 	addi	r2,r2,-128
  801ffc:	10000426 	beq	r2,zero,802010 <logic+0xe40>
    d->AP = 0;
  802000:	e0bffc17 	ldw	r2,-16(fp)
  802004:	10001d85 	stb	zero,118(r2)
    d->VP = 0;
  802008:	e0bffc17 	ldw	r2,-16(fp)
  80200c:	10001dc5 	stb	zero,119(r2)
  }
  d->_g87_e3 = d->_g89 && !d->_cg92;
  802010:	e0bffc17 	ldw	r2,-16(fp)
  802014:	10802d83 	ldbu	r2,182(r2)
  802018:	10803fcc 	andi	r2,r2,255
  80201c:	1080201c 	xori	r2,r2,128
  802020:	10bfe004 	addi	r2,r2,-128
  802024:	10000826 	beq	r2,zero,802048 <logic+0xe78>
  802028:	e0bffc17 	ldw	r2,-16(fp)
  80202c:	10803c83 	ldbu	r2,242(r2)
  802030:	10803fcc 	andi	r2,r2,255
  802034:	1080201c 	xori	r2,r2,128
  802038:	10bfe004 	addi	r2,r2,-128
  80203c:	1000021e 	bne	r2,zero,802048 <logic+0xe78>
  802040:	00800044 	movi	r2,1
  802044:	00000106 	br	80204c <logic+0xe7c>
  802048:	0005883a 	mov	r2,zero
  80204c:	1007883a 	mov	r3,r2
  802050:	e0bffc17 	ldw	r2,-16(fp)
  802054:	10c03f05 	stb	r3,252(r2)
  d->_cg94 = d->_Pacemaker_local__Atrig1;
  802058:	e0bffc17 	ldw	r2,-16(fp)
  80205c:	10c01e43 	ldbu	r3,121(r2)
  802060:	e0bffc17 	ldw	r2,-16(fp)
  802064:	10c03cc5 	stb	r3,243(r2)
  d->_g67 = d->_g87_e3 && d->_cg94;
  802068:	e0bffc17 	ldw	r2,-16(fp)
  80206c:	10803f03 	ldbu	r2,252(r2)
  802070:	10803fcc 	andi	r2,r2,255
  802074:	1080201c 	xori	r2,r2,128
  802078:	10bfe004 	addi	r2,r2,-128
  80207c:	10000826 	beq	r2,zero,8020a0 <logic+0xed0>
  802080:	e0bffc17 	ldw	r2,-16(fp)
  802084:	10803cc3 	ldbu	r2,243(r2)
  802088:	10803fcc 	andi	r2,r2,255
  80208c:	1080201c 	xori	r2,r2,128
  802090:	10bfe004 	addi	r2,r2,-128
  802094:	10000226 	beq	r2,zero,8020a0 <logic+0xed0>
  802098:	00800044 	movi	r2,1
  80209c:	00000106 	br	8020a4 <logic+0xed4>
  8020a0:	0005883a 	mov	r2,zero
  8020a4:	1007883a 	mov	r3,r2
  8020a8:	e0bffc17 	ldw	r2,-16(fp)
  8020ac:	10c02b05 	stb	r3,172(r2)
  if (d->_g67) {
  8020b0:	e0bffc17 	ldw	r2,-16(fp)
  8020b4:	10802b03 	ldbu	r2,172(r2)
  8020b8:	10803fcc 	andi	r2,r2,255
  8020bc:	1080201c 	xori	r2,r2,128
  8020c0:	10bfe004 	addi	r2,r2,-128
  8020c4:	10000b26 	beq	r2,zero,8020f4 <logic+0xf24>
    d->AP |= 1;
  8020c8:	e0bffc17 	ldw	r2,-16(fp)
  8020cc:	10801d83 	ldbu	r2,118(r2)
  8020d0:	10800054 	ori	r2,r2,1
  8020d4:	1007883a 	mov	r3,r2
  8020d8:	e0bffc17 	ldw	r2,-16(fp)
  8020dc:	10c01d85 	stb	r3,118(r2)
    d->_taken_transitions[1] += 1;
  8020e0:	e0bffc17 	ldw	r2,-16(fp)
  8020e4:	10801317 	ldw	r2,76(r2)
  8020e8:	10c00044 	addi	r3,r2,1
  8020ec:	e0bffc17 	ldw	r2,-16(fp)
  8020f0:	10c01315 	stw	r3,76(r2)
  }
  d->_g78 = d->_pg32;
  8020f4:	e0bffc17 	ldw	r2,-16(fp)
  8020f8:	10c041c3 	ldbu	r3,263(r2)
  8020fc:	e0bffc17 	ldw	r2,-16(fp)
  802100:	10c02c05 	stb	r3,176(r2)
  d->_g78_e2 = d->_pg10;
  802104:	e0bffc17 	ldw	r2,-16(fp)
  802108:	10c04203 	ldbu	r3,264(r2)
  80210c:	e0bffc17 	ldw	r2,-16(fp)
  802110:	10c03ec5 	stb	r3,251(r2)
  d->_g135 = !(d->_g78 || d->_g78_e2);
  802114:	e0bffc17 	ldw	r2,-16(fp)
  802118:	10802c03 	ldbu	r2,176(r2)
  80211c:	10803fcc 	andi	r2,r2,255
  802120:	1080201c 	xori	r2,r2,128
  802124:	10bfe004 	addi	r2,r2,-128
  802128:	1000081e 	bne	r2,zero,80214c <logic+0xf7c>
  80212c:	e0bffc17 	ldw	r2,-16(fp)
  802130:	10803ec3 	ldbu	r2,251(r2)
  802134:	10803fcc 	andi	r2,r2,255
  802138:	1080201c 	xori	r2,r2,128
  80213c:	10bfe004 	addi	r2,r2,-128
  802140:	1000021e 	bne	r2,zero,80214c <logic+0xf7c>
  802144:	00800044 	movi	r2,1
  802148:	00000106 	br	802150 <logic+0xf80>
  80214c:	0005883a 	mov	r2,zero
  802150:	1007883a 	mov	r3,r2
  802154:	e0bffc17 	ldw	r2,-16(fp)
  802158:	10c03145 	stb	r3,197(r2)
  d->_g92 = d->_pg59;
  80215c:	e0bffc17 	ldw	r2,-16(fp)
  802160:	10c04243 	ldbu	r3,265(r2)
  802164:	e0bffc17 	ldw	r2,-16(fp)
  802168:	10c02e05 	stb	r3,184(r2)
  if (d->_g92) {
  80216c:	e0bffc17 	ldw	r2,-16(fp)
  802170:	10802e03 	ldbu	r2,184(r2)
  802174:	10803fcc 	andi	r2,r2,255
  802178:	1080201c 	xori	r2,r2,128
  80217c:	10bfe004 	addi	r2,r2,-128
  802180:	10001226 	beq	r2,zero,8021cc <logic+0xffc>
    d->URI_Clock += d->deltaT;
  802184:	e13ffc17 	ldw	r4,-16(fp)
  802188:	20800c17 	ldw	r2,48(r4)
  80218c:	20c00d17 	ldw	r3,52(r4)
  802190:	e1bffc17 	ldw	r6,-16(fp)
  802194:	31001917 	ldw	r4,100(r6)
  802198:	31401a17 	ldw	r5,104(r6)
  80219c:	200d883a 	mov	r6,r4
  8021a0:	280f883a 	mov	r7,r5
  8021a4:	1009883a 	mov	r4,r2
  8021a8:	180b883a 	mov	r5,r3
  8021ac:	08055640 	call	805564 <__adddf3>
  8021b0:	1009883a 	mov	r4,r2
  8021b4:	180b883a 	mov	r5,r3
  8021b8:	2005883a 	mov	r2,r4
  8021bc:	2807883a 	mov	r3,r5
  8021c0:	e13ffc17 	ldw	r4,-16(fp)
  8021c4:	20800c15 	stw	r2,48(r4)
  8021c8:	20c00d15 	stw	r3,52(r4)
  }
  d->_g50 = d->_pg20;
  8021cc:	e0bffc17 	ldw	r2,-16(fp)
  8021d0:	10c04283 	ldbu	r3,266(r2)
  8021d4:	e0bffc17 	ldw	r2,-16(fp)
  8021d8:	10c027c5 	stb	r3,159(r2)
  d->_cg50 = d->VS == 0 && d->AVI_Clock >= d->AVI && d->URI_Clock >= d->URI;
  8021dc:	e0bffc17 	ldw	r2,-16(fp)
  8021e0:	10801d43 	ldbu	r2,117(r2)
  8021e4:	10803fcc 	andi	r2,r2,255
  8021e8:	1080201c 	xori	r2,r2,128
  8021ec:	10bfe004 	addi	r2,r2,-128
  8021f0:	1000201e 	bne	r2,zero,802274 <logic+0x10a4>
  8021f4:	e0bffc17 	ldw	r2,-16(fp)
  8021f8:	14001017 	ldw	r16,64(r2)
  8021fc:	14401117 	ldw	r17,68(r2)
  802200:	e0bffc17 	ldw	r2,-16(fp)
  802204:	10800017 	ldw	r2,0(r2)
  802208:	1009883a 	mov	r4,r2
  80220c:	08068dc0 	call	8068dc <__floatsidf>
  802210:	1009883a 	mov	r4,r2
  802214:	180b883a 	mov	r5,r3
  802218:	200d883a 	mov	r6,r4
  80221c:	280f883a 	mov	r7,r5
  802220:	8009883a 	mov	r4,r16
  802224:	880b883a 	mov	r5,r17
  802228:	0805e100 	call	805e10 <__gedf2>
  80222c:	10001116 	blt	r2,zero,802274 <logic+0x10a4>
  802230:	e0bffc17 	ldw	r2,-16(fp)
  802234:	14000c17 	ldw	r16,48(r2)
  802238:	14400d17 	ldw	r17,52(r2)
  80223c:	e0bffc17 	ldw	r2,-16(fp)
  802240:	10800517 	ldw	r2,20(r2)
  802244:	1009883a 	mov	r4,r2
  802248:	08068dc0 	call	8068dc <__floatsidf>
  80224c:	1009883a 	mov	r4,r2
  802250:	180b883a 	mov	r5,r3
  802254:	200d883a 	mov	r6,r4
  802258:	280f883a 	mov	r7,r5
  80225c:	8009883a 	mov	r4,r16
  802260:	880b883a 	mov	r5,r17
  802264:	0805e100 	call	805e10 <__gedf2>
  802268:	10000216 	blt	r2,zero,802274 <logic+0x10a4>
  80226c:	00800044 	movi	r2,1
  802270:	00000106 	br	802278 <logic+0x10a8>
  802274:	0005883a 	mov	r2,zero
  802278:	1007883a 	mov	r3,r2
  80227c:	e0bffc17 	ldw	r2,-16(fp)
  802280:	10c03805 	stb	r3,224(r2)
  d->_g51 = d->_g50 && d->_cg50;
  802284:	e0bffc17 	ldw	r2,-16(fp)
  802288:	108027c3 	ldbu	r2,159(r2)
  80228c:	10803fcc 	andi	r2,r2,255
  802290:	1080201c 	xori	r2,r2,128
  802294:	10bfe004 	addi	r2,r2,-128
  802298:	10000826 	beq	r2,zero,8022bc <logic+0x10ec>
  80229c:	e0bffc17 	ldw	r2,-16(fp)
  8022a0:	10803803 	ldbu	r2,224(r2)
  8022a4:	10803fcc 	andi	r2,r2,255
  8022a8:	1080201c 	xori	r2,r2,128
  8022ac:	10bfe004 	addi	r2,r2,-128
  8022b0:	10000226 	beq	r2,zero,8022bc <logic+0x10ec>
  8022b4:	00800044 	movi	r2,1
  8022b8:	00000106 	br	8022c0 <logic+0x10f0>
  8022bc:	0005883a 	mov	r2,zero
  8022c0:	1007883a 	mov	r3,r2
  8022c4:	e0bffc17 	ldw	r2,-16(fp)
  8022c8:	10c02805 	stb	r3,160(r2)
  if (d->_g51) {
  8022cc:	e0bffc17 	ldw	r2,-16(fp)
  8022d0:	10802803 	ldbu	r2,160(r2)
  8022d4:	10803fcc 	andi	r2,r2,255
  8022d8:	1080201c 	xori	r2,r2,128
  8022dc:	10bfe004 	addi	r2,r2,-128
  8022e0:	10000326 	beq	r2,zero,8022f0 <logic+0x1120>
    d->_Pacemaker_local__Atrig3 = 1;
  8022e4:	e0bffc17 	ldw	r2,-16(fp)
  8022e8:	00c00044 	movi	r3,1
  8022ec:	10c01ec5 	stb	r3,123(r2)
  }
  d->_g107 = d->_pg99;
  8022f0:	e0bffc17 	ldw	r2,-16(fp)
  8022f4:	10c042c3 	ldbu	r3,267(r2)
  8022f8:	e0bffc17 	ldw	r2,-16(fp)
  8022fc:	10c03005 	stb	r3,192(r2)
  if (d->_g107) {
  802300:	e0bffc17 	ldw	r2,-16(fp)
  802304:	10803003 	ldbu	r2,192(r2)
  802308:	10803fcc 	andi	r2,r2,255
  80230c:	1080201c 	xori	r2,r2,128
  802310:	10bfe004 	addi	r2,r2,-128
  802314:	10001226 	beq	r2,zero,802360 <logic+0x1190>
    d->VRP_Clock += d->deltaT;
  802318:	e13ffc17 	ldw	r4,-16(fp)
  80231c:	20800617 	ldw	r2,24(r4)
  802320:	20c00717 	ldw	r3,28(r4)
  802324:	e1bffc17 	ldw	r6,-16(fp)
  802328:	31001917 	ldw	r4,100(r6)
  80232c:	31401a17 	ldw	r5,104(r6)
  802330:	200d883a 	mov	r6,r4
  802334:	280f883a 	mov	r7,r5
  802338:	1009883a 	mov	r4,r2
  80233c:	180b883a 	mov	r5,r3
  802340:	08055640 	call	805564 <__adddf3>
  802344:	1009883a 	mov	r4,r2
  802348:	180b883a 	mov	r5,r3
  80234c:	2005883a 	mov	r2,r4
  802350:	2807883a 	mov	r3,r5
  802354:	e13ffc17 	ldw	r4,-16(fp)
  802358:	20800615 	stw	r2,24(r4)
  80235c:	20c00715 	stw	r3,28(r4)
  }
  d->_g53 = d->_g50 && !d->_cg50;
  802360:	e0bffc17 	ldw	r2,-16(fp)
  802364:	108027c3 	ldbu	r2,159(r2)
  802368:	10803fcc 	andi	r2,r2,255
  80236c:	1080201c 	xori	r2,r2,128
  802370:	10bfe004 	addi	r2,r2,-128
  802374:	10000826 	beq	r2,zero,802398 <logic+0x11c8>
  802378:	e0bffc17 	ldw	r2,-16(fp)
  80237c:	10803803 	ldbu	r2,224(r2)
  802380:	10803fcc 	andi	r2,r2,255
  802384:	1080201c 	xori	r2,r2,128
  802388:	10bfe004 	addi	r2,r2,-128
  80238c:	1000021e 	bne	r2,zero,802398 <logic+0x11c8>
  802390:	00800044 	movi	r2,1
  802394:	00000106 	br	80239c <logic+0x11cc>
  802398:	0005883a 	mov	r2,zero
  80239c:	1007883a 	mov	r3,r2
  8023a0:	e0bffc17 	ldw	r2,-16(fp)
  8023a4:	10c02885 	stb	r3,162(r2)
  d->_cg53 = d->VS == 1 && d->VRP_Clock >= d->VRP;
  8023a8:	e0bffc17 	ldw	r2,-16(fp)
  8023ac:	10801d43 	ldbu	r2,117(r2)
  8023b0:	10803fcc 	andi	r2,r2,255
  8023b4:	1080201c 	xori	r2,r2,128
  8023b8:	10bfe004 	addi	r2,r2,-128
  8023bc:	10800058 	cmpnei	r2,r2,1
  8023c0:	1000111e 	bne	r2,zero,802408 <logic+0x1238>
  8023c4:	e0bffc17 	ldw	r2,-16(fp)
  8023c8:	14000617 	ldw	r16,24(r2)
  8023cc:	14400717 	ldw	r17,28(r2)
  8023d0:	e0bffc17 	ldw	r2,-16(fp)
  8023d4:	10800317 	ldw	r2,12(r2)
  8023d8:	1009883a 	mov	r4,r2
  8023dc:	08068dc0 	call	8068dc <__floatsidf>
  8023e0:	1009883a 	mov	r4,r2
  8023e4:	180b883a 	mov	r5,r3
  8023e8:	200d883a 	mov	r6,r4
  8023ec:	280f883a 	mov	r7,r5
  8023f0:	8009883a 	mov	r4,r16
  8023f4:	880b883a 	mov	r5,r17
  8023f8:	0805e100 	call	805e10 <__gedf2>
  8023fc:	10000216 	blt	r2,zero,802408 <logic+0x1238>
  802400:	00800044 	movi	r2,1
  802404:	00000106 	br	80240c <logic+0x123c>
  802408:	0005883a 	mov	r2,zero
  80240c:	1007883a 	mov	r3,r2
  802410:	e0bffc17 	ldw	r2,-16(fp)
  802414:	10c03845 	stb	r3,225(r2)
  d->_g54 = d->_g53 && d->_cg53;
  802418:	e0bffc17 	ldw	r2,-16(fp)
  80241c:	10802883 	ldbu	r2,162(r2)
  802420:	10803fcc 	andi	r2,r2,255
  802424:	1080201c 	xori	r2,r2,128
  802428:	10bfe004 	addi	r2,r2,-128
  80242c:	10000826 	beq	r2,zero,802450 <logic+0x1280>
  802430:	e0bffc17 	ldw	r2,-16(fp)
  802434:	10803843 	ldbu	r2,225(r2)
  802438:	10803fcc 	andi	r2,r2,255
  80243c:	1080201c 	xori	r2,r2,128
  802440:	10bfe004 	addi	r2,r2,-128
  802444:	10000226 	beq	r2,zero,802450 <logic+0x1280>
  802448:	00800044 	movi	r2,1
  80244c:	00000106 	br	802454 <logic+0x1284>
  802450:	0005883a 	mov	r2,zero
  802454:	1007883a 	mov	r3,r2
  802458:	e0bffc17 	ldw	r2,-16(fp)
  80245c:	10c028c5 	stb	r3,163(r2)
  if (d->_g54) {
  802460:	e0bffc17 	ldw	r2,-16(fp)
  802464:	108028c3 	ldbu	r2,163(r2)
  802468:	10803fcc 	andi	r2,r2,255
  80246c:	1080201c 	xori	r2,r2,128
  802470:	10bfe004 	addi	r2,r2,-128
  802474:	10000326 	beq	r2,zero,802484 <logic+0x12b4>
    d->_Pacemaker_local__Atrig4 = 1;
  802478:	e0bffc17 	ldw	r2,-16(fp)
  80247c:	00c00044 	movi	r3,1
  802480:	10c01f05 	stb	r3,124(r2)
  }
  d->_g115 = d->_pg94;
  802484:	e0bffc17 	ldw	r2,-16(fp)
  802488:	10c04303 	ldbu	r3,268(r2)
  80248c:	e0bffc17 	ldw	r2,-16(fp)
  802490:	10c03085 	stb	r3,194(r2)
  if (d->_g115) {
  802494:	e0bffc17 	ldw	r2,-16(fp)
  802498:	10803083 	ldbu	r2,194(r2)
  80249c:	10803fcc 	andi	r2,r2,255
  8024a0:	1080201c 	xori	r2,r2,128
  8024a4:	10bfe004 	addi	r2,r2,-128
  8024a8:	10001226 	beq	r2,zero,8024f4 <logic+0x1324>
    d->LRI_Clock += d->deltaT;
  8024ac:	e13ffc17 	ldw	r4,-16(fp)
  8024b0:	20800a17 	ldw	r2,40(r4)
  8024b4:	20c00b17 	ldw	r3,44(r4)
  8024b8:	e1bffc17 	ldw	r6,-16(fp)
  8024bc:	31001917 	ldw	r4,100(r6)
  8024c0:	31401a17 	ldw	r5,104(r6)
  8024c4:	200d883a 	mov	r6,r4
  8024c8:	280f883a 	mov	r7,r5
  8024cc:	1009883a 	mov	r4,r2
  8024d0:	180b883a 	mov	r5,r3
  8024d4:	08055640 	call	805564 <__adddf3>
  8024d8:	1009883a 	mov	r4,r2
  8024dc:	180b883a 	mov	r5,r3
  8024e0:	2005883a 	mov	r2,r4
  8024e4:	2807883a 	mov	r3,r5
  8024e8:	e13ffc17 	ldw	r4,-16(fp)
  8024ec:	20800a15 	stw	r2,40(r4)
  8024f0:	20c00b15 	stw	r3,44(r4)
  }
  d->_g53 = d->_g53 && !d->_cg53;
  8024f4:	e0bffc17 	ldw	r2,-16(fp)
  8024f8:	10802883 	ldbu	r2,162(r2)
  8024fc:	10803fcc 	andi	r2,r2,255
  802500:	1080201c 	xori	r2,r2,128
  802504:	10bfe004 	addi	r2,r2,-128
  802508:	10000826 	beq	r2,zero,80252c <logic+0x135c>
  80250c:	e0bffc17 	ldw	r2,-16(fp)
  802510:	10803843 	ldbu	r2,225(r2)
  802514:	10803fcc 	andi	r2,r2,255
  802518:	1080201c 	xori	r2,r2,128
  80251c:	10bfe004 	addi	r2,r2,-128
  802520:	1000021e 	bne	r2,zero,80252c <logic+0x135c>
  802524:	00800044 	movi	r2,1
  802528:	00000106 	br	802530 <logic+0x1360>
  80252c:	0005883a 	mov	r2,zero
  802530:	1007883a 	mov	r3,r2
  802534:	e0bffc17 	ldw	r2,-16(fp)
  802538:	10c02885 	stb	r3,162(r2)
  d->_cg55 = d->VS == 0 && d->LRI_Clock >= d->LRI;
  80253c:	e0bffc17 	ldw	r2,-16(fp)
  802540:	10801d43 	ldbu	r2,117(r2)
  802544:	10803fcc 	andi	r2,r2,255
  802548:	1080201c 	xori	r2,r2,128
  80254c:	10bfe004 	addi	r2,r2,-128
  802550:	1000111e 	bne	r2,zero,802598 <logic+0x13c8>
  802554:	e0bffc17 	ldw	r2,-16(fp)
  802558:	14000a17 	ldw	r16,40(r2)
  80255c:	14400b17 	ldw	r17,44(r2)
  802560:	e0bffc17 	ldw	r2,-16(fp)
  802564:	10800417 	ldw	r2,16(r2)
  802568:	1009883a 	mov	r4,r2
  80256c:	08068dc0 	call	8068dc <__floatsidf>
  802570:	1009883a 	mov	r4,r2
  802574:	180b883a 	mov	r5,r3
  802578:	200d883a 	mov	r6,r4
  80257c:	280f883a 	mov	r7,r5
  802580:	8009883a 	mov	r4,r16
  802584:	880b883a 	mov	r5,r17
  802588:	0805e100 	call	805e10 <__gedf2>
  80258c:	10000216 	blt	r2,zero,802598 <logic+0x13c8>
  802590:	00800044 	movi	r2,1
  802594:	00000106 	br	80259c <logic+0x13cc>
  802598:	0005883a 	mov	r2,zero
  80259c:	1007883a 	mov	r3,r2
  8025a0:	e0bffc17 	ldw	r2,-16(fp)
  8025a4:	10c037c5 	stb	r3,223(r2)
  d->_g56 = d->_g53 && d->_cg55;
  8025a8:	e0bffc17 	ldw	r2,-16(fp)
  8025ac:	10802883 	ldbu	r2,162(r2)
  8025b0:	10803fcc 	andi	r2,r2,255
  8025b4:	1080201c 	xori	r2,r2,128
  8025b8:	10bfe004 	addi	r2,r2,-128
  8025bc:	10000826 	beq	r2,zero,8025e0 <logic+0x1410>
  8025c0:	e0bffc17 	ldw	r2,-16(fp)
  8025c4:	108037c3 	ldbu	r2,223(r2)
  8025c8:	10803fcc 	andi	r2,r2,255
  8025cc:	1080201c 	xori	r2,r2,128
  8025d0:	10bfe004 	addi	r2,r2,-128
  8025d4:	10000226 	beq	r2,zero,8025e0 <logic+0x1410>
  8025d8:	00800044 	movi	r2,1
  8025dc:	00000106 	br	8025e4 <logic+0x1414>
  8025e0:	0005883a 	mov	r2,zero
  8025e4:	1007883a 	mov	r3,r2
  8025e8:	e0bffc17 	ldw	r2,-16(fp)
  8025ec:	10c02945 	stb	r3,165(r2)
  if (d->_g56) {
  8025f0:	e0bffc17 	ldw	r2,-16(fp)
  8025f4:	10802943 	ldbu	r2,165(r2)
  8025f8:	10803fcc 	andi	r2,r2,255
  8025fc:	1080201c 	xori	r2,r2,128
  802600:	10bfe004 	addi	r2,r2,-128
  802604:	10000326 	beq	r2,zero,802614 <logic+0x1444>
    d->_Pacemaker_local__Atrig5 = 1;
  802608:	e0bffc17 	ldw	r2,-16(fp)
  80260c:	00c00044 	movi	r3,1
  802610:	10c01f45 	stb	r3,125(r2)
  }
  d->_g13 = d->_g78_e2 || d->_g78;
  802614:	e0bffc17 	ldw	r2,-16(fp)
  802618:	10803ec3 	ldbu	r2,251(r2)
  80261c:	10803fcc 	andi	r2,r2,255
  802620:	1080201c 	xori	r2,r2,128
  802624:	10bfe004 	addi	r2,r2,-128
  802628:	1000061e 	bne	r2,zero,802644 <logic+0x1474>
  80262c:	e0bffc17 	ldw	r2,-16(fp)
  802630:	10802c03 	ldbu	r2,176(r2)
  802634:	10803fcc 	andi	r2,r2,255
  802638:	1080201c 	xori	r2,r2,128
  80263c:	10bfe004 	addi	r2,r2,-128
  802640:	10000226 	beq	r2,zero,80264c <logic+0x147c>
  802644:	00800044 	movi	r2,1
  802648:	00000106 	br	802650 <logic+0x1480>
  80264c:	0005883a 	mov	r2,zero
  802650:	1007883a 	mov	r3,r2
  802654:	e0bffc17 	ldw	r2,-16(fp)
  802658:	10c02145 	stb	r3,133(r2)
  d->_cg8 = d->VRP_Clock < d->VRP;
  80265c:	e0bffc17 	ldw	r2,-16(fp)
  802660:	14000617 	ldw	r16,24(r2)
  802664:	14400717 	ldw	r17,28(r2)
  802668:	e0bffc17 	ldw	r2,-16(fp)
  80266c:	10800317 	ldw	r2,12(r2)
  802670:	1009883a 	mov	r4,r2
  802674:	08068dc0 	call	8068dc <__floatsidf>
  802678:	1009883a 	mov	r4,r2
  80267c:	180b883a 	mov	r5,r3
  802680:	04800044 	movi	r18,1
  802684:	200d883a 	mov	r6,r4
  802688:	280f883a 	mov	r7,r5
  80268c:	8009883a 	mov	r4,r16
  802690:	880b883a 	mov	r5,r17
  802694:	0805eec0 	call	805eec <__ledf2>
  802698:	10000116 	blt	r2,zero,8026a0 <logic+0x14d0>
  80269c:	0025883a 	mov	r18,zero
  8026a0:	9007883a 	mov	r3,r18
  8026a4:	e0bffc17 	ldw	r2,-16(fp)
  8026a8:	10c03285 	stb	r3,202(r2)
  d->_g7 = d->_g13 && d->_cg8;
  8026ac:	e0bffc17 	ldw	r2,-16(fp)
  8026b0:	10802143 	ldbu	r2,133(r2)
  8026b4:	10803fcc 	andi	r2,r2,255
  8026b8:	1080201c 	xori	r2,r2,128
  8026bc:	10bfe004 	addi	r2,r2,-128
  8026c0:	10000826 	beq	r2,zero,8026e4 <logic+0x1514>
  8026c4:	e0bffc17 	ldw	r2,-16(fp)
  8026c8:	10803283 	ldbu	r2,202(r2)
  8026cc:	10803fcc 	andi	r2,r2,255
  8026d0:	1080201c 	xori	r2,r2,128
  8026d4:	10bfe004 	addi	r2,r2,-128
  8026d8:	10000226 	beq	r2,zero,8026e4 <logic+0x1514>
  8026dc:	00800044 	movi	r2,1
  8026e0:	00000106 	br	8026e8 <logic+0x1518>
  8026e4:	0005883a 	mov	r2,zero
  8026e8:	1007883a 	mov	r3,r2
  8026ec:	e0bffc17 	ldw	r2,-16(fp)
  8026f0:	10c02005 	stb	r3,128(r2)
  if (d->_g7) {
  8026f4:	e0bffc17 	ldw	r2,-16(fp)
  8026f8:	10802003 	ldbu	r2,128(r2)
  8026fc:	10803fcc 	andi	r2,r2,255
  802700:	1080201c 	xori	r2,r2,128
  802704:	10bfe004 	addi	r2,r2,-128
  802708:	10003426 	beq	r2,zero,8027dc <logic+0x160c>
    d->sleepT = (d->sleepT < (d->VRP - d->VRP_Clock)) ? d->sleepT : (d->VRP - d->VRP_Clock);
  80270c:	e0bffc17 	ldw	r2,-16(fp)
  802710:	14001b17 	ldw	r16,108(r2)
  802714:	14401c17 	ldw	r17,112(r2)
  802718:	e0bffc17 	ldw	r2,-16(fp)
  80271c:	10800317 	ldw	r2,12(r2)
  802720:	1009883a 	mov	r4,r2
  802724:	08068dc0 	call	8068dc <__floatsidf>
  802728:	1011883a 	mov	r8,r2
  80272c:	1813883a 	mov	r9,r3
  802730:	e13ffc17 	ldw	r4,-16(fp)
  802734:	20800617 	ldw	r2,24(r4)
  802738:	20c00717 	ldw	r3,28(r4)
  80273c:	100d883a 	mov	r6,r2
  802740:	180f883a 	mov	r7,r3
  802744:	4009883a 	mov	r4,r8
  802748:	480b883a 	mov	r5,r9
  80274c:	0805fe00 	call	805fe0 <__subdf3>
  802750:	1009883a 	mov	r4,r2
  802754:	180b883a 	mov	r5,r3
  802758:	2005883a 	mov	r2,r4
  80275c:	2807883a 	mov	r3,r5
  802760:	100d883a 	mov	r6,r2
  802764:	180f883a 	mov	r7,r3
  802768:	8009883a 	mov	r4,r16
  80276c:	880b883a 	mov	r5,r17
  802770:	0805eec0 	call	805eec <__ledf2>
  802774:	1000040e 	bge	r2,zero,802788 <logic+0x15b8>
  802778:	e13ffc17 	ldw	r4,-16(fp)
  80277c:	20801b17 	ldw	r2,108(r4)
  802780:	20c01c17 	ldw	r3,112(r4)
  802784:	00001206 	br	8027d0 <logic+0x1600>
  802788:	e0bffc17 	ldw	r2,-16(fp)
  80278c:	10800317 	ldw	r2,12(r2)
  802790:	1009883a 	mov	r4,r2
  802794:	08068dc0 	call	8068dc <__floatsidf>
  802798:	1011883a 	mov	r8,r2
  80279c:	1813883a 	mov	r9,r3
  8027a0:	e13ffc17 	ldw	r4,-16(fp)
  8027a4:	20800617 	ldw	r2,24(r4)
  8027a8:	20c00717 	ldw	r3,28(r4)
  8027ac:	100d883a 	mov	r6,r2
  8027b0:	180f883a 	mov	r7,r3
  8027b4:	4009883a 	mov	r4,r8
  8027b8:	480b883a 	mov	r5,r9
  8027bc:	0805fe00 	call	805fe0 <__subdf3>
  8027c0:	1009883a 	mov	r4,r2
  8027c4:	180b883a 	mov	r5,r3
  8027c8:	2005883a 	mov	r2,r4
  8027cc:	2807883a 	mov	r3,r5
  8027d0:	e13ffc17 	ldw	r4,-16(fp)
  8027d4:	20801b15 	stw	r2,108(r4)
  8027d8:	20c01c15 	stw	r3,112(r4)
  }
  d->_cg9 = d->_Pacemaker_local__Atrig3 || d->_Pacemaker_local__Atrig4 || d->_Pacemaker_local__Atrig5;
  8027dc:	e0bffc17 	ldw	r2,-16(fp)
  8027e0:	10801ec3 	ldbu	r2,123(r2)
  8027e4:	10803fcc 	andi	r2,r2,255
  8027e8:	1080201c 	xori	r2,r2,128
  8027ec:	10bfe004 	addi	r2,r2,-128
  8027f0:	10000c1e 	bne	r2,zero,802824 <logic+0x1654>
  8027f4:	e0bffc17 	ldw	r2,-16(fp)
  8027f8:	10801f03 	ldbu	r2,124(r2)
  8027fc:	10803fcc 	andi	r2,r2,255
  802800:	1080201c 	xori	r2,r2,128
  802804:	10bfe004 	addi	r2,r2,-128
  802808:	1000061e 	bne	r2,zero,802824 <logic+0x1654>
  80280c:	e0bffc17 	ldw	r2,-16(fp)
  802810:	10801f43 	ldbu	r2,125(r2)
  802814:	10803fcc 	andi	r2,r2,255
  802818:	1080201c 	xori	r2,r2,128
  80281c:	10bfe004 	addi	r2,r2,-128
  802820:	10000226 	beq	r2,zero,80282c <logic+0x165c>
  802824:	00800044 	movi	r2,1
  802828:	00000106 	br	802830 <logic+0x1660>
  80282c:	0005883a 	mov	r2,zero
  802830:	1007883a 	mov	r3,r2
  802834:	e0bffc17 	ldw	r2,-16(fp)
  802838:	10c03245 	stb	r3,201(r2)
  d->_g8 = d->_g13 && !d->_cg8;
  80283c:	e0bffc17 	ldw	r2,-16(fp)
  802840:	10802143 	ldbu	r2,133(r2)
  802844:	10803fcc 	andi	r2,r2,255
  802848:	1080201c 	xori	r2,r2,128
  80284c:	10bfe004 	addi	r2,r2,-128
  802850:	10000826 	beq	r2,zero,802874 <logic+0x16a4>
  802854:	e0bffc17 	ldw	r2,-16(fp)
  802858:	10803283 	ldbu	r2,202(r2)
  80285c:	10803fcc 	andi	r2,r2,255
  802860:	1080201c 	xori	r2,r2,128
  802864:	10bfe004 	addi	r2,r2,-128
  802868:	1000021e 	bne	r2,zero,802874 <logic+0x16a4>
  80286c:	00800044 	movi	r2,1
  802870:	00000106 	br	802878 <logic+0x16a8>
  802874:	0005883a 	mov	r2,zero
  802878:	1007883a 	mov	r3,r2
  80287c:	e0bffc17 	ldw	r2,-16(fp)
  802880:	10c02045 	stb	r3,129(r2)
  d->_cg11 = d->_Pacemaker_local__Atrig3 || d->_Pacemaker_local__Atrig4 || d->_Pacemaker_local__Atrig5;
  802884:	e0bffc17 	ldw	r2,-16(fp)
  802888:	10801ec3 	ldbu	r2,123(r2)
  80288c:	10803fcc 	andi	r2,r2,255
  802890:	1080201c 	xori	r2,r2,128
  802894:	10bfe004 	addi	r2,r2,-128
  802898:	10000c1e 	bne	r2,zero,8028cc <logic+0x16fc>
  80289c:	e0bffc17 	ldw	r2,-16(fp)
  8028a0:	10801f03 	ldbu	r2,124(r2)
  8028a4:	10803fcc 	andi	r2,r2,255
  8028a8:	1080201c 	xori	r2,r2,128
  8028ac:	10bfe004 	addi	r2,r2,-128
  8028b0:	1000061e 	bne	r2,zero,8028cc <logic+0x16fc>
  8028b4:	e0bffc17 	ldw	r2,-16(fp)
  8028b8:	10801f43 	ldbu	r2,125(r2)
  8028bc:	10803fcc 	andi	r2,r2,255
  8028c0:	1080201c 	xori	r2,r2,128
  8028c4:	10bfe004 	addi	r2,r2,-128
  8028c8:	10000226 	beq	r2,zero,8028d4 <logic+0x1704>
  8028cc:	00800044 	movi	r2,1
  8028d0:	00000106 	br	8028d8 <logic+0x1708>
  8028d4:	0005883a 	mov	r2,zero
  8028d8:	1007883a 	mov	r3,r2
  8028dc:	e0bffc17 	ldw	r2,-16(fp)
  8028e0:	10c032c5 	stb	r3,203(r2)
  d->_g10 = d->_g7 && d->_cg9 || d->_g8 && d->_cg11;
  8028e4:	e0bffc17 	ldw	r2,-16(fp)
  8028e8:	10802003 	ldbu	r2,128(r2)
  8028ec:	10803fcc 	andi	r2,r2,255
  8028f0:	1080201c 	xori	r2,r2,128
  8028f4:	10bfe004 	addi	r2,r2,-128
  8028f8:	10000626 	beq	r2,zero,802914 <logic+0x1744>
  8028fc:	e0bffc17 	ldw	r2,-16(fp)
  802900:	10803243 	ldbu	r2,201(r2)
  802904:	10803fcc 	andi	r2,r2,255
  802908:	1080201c 	xori	r2,r2,128
  80290c:	10bfe004 	addi	r2,r2,-128
  802910:	10000c1e 	bne	r2,zero,802944 <logic+0x1774>
  802914:	e0bffc17 	ldw	r2,-16(fp)
  802918:	10802043 	ldbu	r2,129(r2)
  80291c:	10803fcc 	andi	r2,r2,255
  802920:	1080201c 	xori	r2,r2,128
  802924:	10bfe004 	addi	r2,r2,-128
  802928:	10000826 	beq	r2,zero,80294c <logic+0x177c>
  80292c:	e0bffc17 	ldw	r2,-16(fp)
  802930:	108032c3 	ldbu	r2,203(r2)
  802934:	10803fcc 	andi	r2,r2,255
  802938:	1080201c 	xori	r2,r2,128
  80293c:	10bfe004 	addi	r2,r2,-128
  802940:	10000226 	beq	r2,zero,80294c <logic+0x177c>
  802944:	00800044 	movi	r2,1
  802948:	00000106 	br	802950 <logic+0x1780>
  80294c:	0005883a 	mov	r2,zero
  802950:	1007883a 	mov	r3,r2
  802954:	e0bffc17 	ldw	r2,-16(fp)
  802958:	10c020c5 	stb	r3,131(r2)
  d->_g24 = d->_pg32_e3;
  80295c:	e0bffc17 	ldw	r2,-16(fp)
  802960:	10c04343 	ldbu	r3,269(r2)
  802964:	e0bffc17 	ldw	r2,-16(fp)
  802968:	10c02345 	stb	r3,141(r2)
  d->_g18 = d->_pg21_e2;
  80296c:	e0bffc17 	ldw	r2,-16(fp)
  802970:	10c04383 	ldbu	r3,270(r2)
  802974:	e0bffc17 	ldw	r2,-16(fp)
  802978:	10c02205 	stb	r3,136(r2)
  d->_g21_e2 = !(d->_g24 || d->_g18);
  80297c:	e0bffc17 	ldw	r2,-16(fp)
  802980:	10802343 	ldbu	r2,141(r2)
  802984:	10803fcc 	andi	r2,r2,255
  802988:	1080201c 	xori	r2,r2,128
  80298c:	10bfe004 	addi	r2,r2,-128
  802990:	1000081e 	bne	r2,zero,8029b4 <logic+0x17e4>
  802994:	e0bffc17 	ldw	r2,-16(fp)
  802998:	10802203 	ldbu	r2,136(r2)
  80299c:	10803fcc 	andi	r2,r2,255
  8029a0:	1080201c 	xori	r2,r2,128
  8029a4:	10bfe004 	addi	r2,r2,-128
  8029a8:	1000021e 	bne	r2,zero,8029b4 <logic+0x17e4>
  8029ac:	00800044 	movi	r2,1
  8029b0:	00000106 	br	8029b8 <logic+0x17e8>
  8029b4:	0005883a 	mov	r2,zero
  8029b8:	1007883a 	mov	r3,r2
  8029bc:	e0bffc17 	ldw	r2,-16(fp)
  8029c0:	10c03d85 	stb	r3,246(r2)
  d->_g24 = d->_g18 || d->_g24;
  8029c4:	e0bffc17 	ldw	r2,-16(fp)
  8029c8:	10802203 	ldbu	r2,136(r2)
  8029cc:	10803fcc 	andi	r2,r2,255
  8029d0:	1080201c 	xori	r2,r2,128
  8029d4:	10bfe004 	addi	r2,r2,-128
  8029d8:	1000061e 	bne	r2,zero,8029f4 <logic+0x1824>
  8029dc:	e0bffc17 	ldw	r2,-16(fp)
  8029e0:	10802343 	ldbu	r2,141(r2)
  8029e4:	10803fcc 	andi	r2,r2,255
  8029e8:	1080201c 	xori	r2,r2,128
  8029ec:	10bfe004 	addi	r2,r2,-128
  8029f0:	10000226 	beq	r2,zero,8029fc <logic+0x182c>
  8029f4:	00800044 	movi	r2,1
  8029f8:	00000106 	br	802a00 <logic+0x1830>
  8029fc:	0005883a 	mov	r2,zero
  802a00:	1007883a 	mov	r3,r2
  802a04:	e0bffc17 	ldw	r2,-16(fp)
  802a08:	10c02345 	stb	r3,141(r2)
  d->_cg19 = d->LRI_Clock < d->LRI;
  802a0c:	e0bffc17 	ldw	r2,-16(fp)
  802a10:	14000a17 	ldw	r16,40(r2)
  802a14:	14400b17 	ldw	r17,44(r2)
  802a18:	e0bffc17 	ldw	r2,-16(fp)
  802a1c:	10800417 	ldw	r2,16(r2)
  802a20:	1009883a 	mov	r4,r2
  802a24:	08068dc0 	call	8068dc <__floatsidf>
  802a28:	1009883a 	mov	r4,r2
  802a2c:	180b883a 	mov	r5,r3
  802a30:	04800044 	movi	r18,1
  802a34:	200d883a 	mov	r6,r4
  802a38:	280f883a 	mov	r7,r5
  802a3c:	8009883a 	mov	r4,r16
  802a40:	880b883a 	mov	r5,r17
  802a44:	0805eec0 	call	805eec <__ledf2>
  802a48:	10000116 	blt	r2,zero,802a50 <logic+0x1880>
  802a4c:	0025883a 	mov	r18,zero
  802a50:	9007883a 	mov	r3,r18
  802a54:	e0bffc17 	ldw	r2,-16(fp)
  802a58:	10c03405 	stb	r3,208(r2)
  d->_g18 = d->_g24 && d->_cg19;
  802a5c:	e0bffc17 	ldw	r2,-16(fp)
  802a60:	10802343 	ldbu	r2,141(r2)
  802a64:	10803fcc 	andi	r2,r2,255
  802a68:	1080201c 	xori	r2,r2,128
  802a6c:	10bfe004 	addi	r2,r2,-128
  802a70:	10000826 	beq	r2,zero,802a94 <logic+0x18c4>
  802a74:	e0bffc17 	ldw	r2,-16(fp)
  802a78:	10803403 	ldbu	r2,208(r2)
  802a7c:	10803fcc 	andi	r2,r2,255
  802a80:	1080201c 	xori	r2,r2,128
  802a84:	10bfe004 	addi	r2,r2,-128
  802a88:	10000226 	beq	r2,zero,802a94 <logic+0x18c4>
  802a8c:	00800044 	movi	r2,1
  802a90:	00000106 	br	802a98 <logic+0x18c8>
  802a94:	0005883a 	mov	r2,zero
  802a98:	1007883a 	mov	r3,r2
  802a9c:	e0bffc17 	ldw	r2,-16(fp)
  802aa0:	10c02205 	stb	r3,136(r2)
  if (d->_g18) {
  802aa4:	e0bffc17 	ldw	r2,-16(fp)
  802aa8:	10802203 	ldbu	r2,136(r2)
  802aac:	10803fcc 	andi	r2,r2,255
  802ab0:	1080201c 	xori	r2,r2,128
  802ab4:	10bfe004 	addi	r2,r2,-128
  802ab8:	10003426 	beq	r2,zero,802b8c <logic+0x19bc>
    d->sleepT = (d->sleepT < (d->LRI - d->LRI_Clock)) ? d->sleepT : (d->LRI - d->LRI_Clock);
  802abc:	e0bffc17 	ldw	r2,-16(fp)
  802ac0:	14001b17 	ldw	r16,108(r2)
  802ac4:	14401c17 	ldw	r17,112(r2)
  802ac8:	e0bffc17 	ldw	r2,-16(fp)
  802acc:	10800417 	ldw	r2,16(r2)
  802ad0:	1009883a 	mov	r4,r2
  802ad4:	08068dc0 	call	8068dc <__floatsidf>
  802ad8:	1011883a 	mov	r8,r2
  802adc:	1813883a 	mov	r9,r3
  802ae0:	e13ffc17 	ldw	r4,-16(fp)
  802ae4:	20800a17 	ldw	r2,40(r4)
  802ae8:	20c00b17 	ldw	r3,44(r4)
  802aec:	100d883a 	mov	r6,r2
  802af0:	180f883a 	mov	r7,r3
  802af4:	4009883a 	mov	r4,r8
  802af8:	480b883a 	mov	r5,r9
  802afc:	0805fe00 	call	805fe0 <__subdf3>
  802b00:	1009883a 	mov	r4,r2
  802b04:	180b883a 	mov	r5,r3
  802b08:	2005883a 	mov	r2,r4
  802b0c:	2807883a 	mov	r3,r5
  802b10:	100d883a 	mov	r6,r2
  802b14:	180f883a 	mov	r7,r3
  802b18:	8009883a 	mov	r4,r16
  802b1c:	880b883a 	mov	r5,r17
  802b20:	0805eec0 	call	805eec <__ledf2>
  802b24:	1000040e 	bge	r2,zero,802b38 <logic+0x1968>
  802b28:	e13ffc17 	ldw	r4,-16(fp)
  802b2c:	20801b17 	ldw	r2,108(r4)
  802b30:	20c01c17 	ldw	r3,112(r4)
  802b34:	00001206 	br	802b80 <logic+0x19b0>
  802b38:	e0bffc17 	ldw	r2,-16(fp)
  802b3c:	10800417 	ldw	r2,16(r2)
  802b40:	1009883a 	mov	r4,r2
  802b44:	08068dc0 	call	8068dc <__floatsidf>
  802b48:	1011883a 	mov	r8,r2
  802b4c:	1813883a 	mov	r9,r3
  802b50:	e13ffc17 	ldw	r4,-16(fp)
  802b54:	20800a17 	ldw	r2,40(r4)
  802b58:	20c00b17 	ldw	r3,44(r4)
  802b5c:	100d883a 	mov	r6,r2
  802b60:	180f883a 	mov	r7,r3
  802b64:	4009883a 	mov	r4,r8
  802b68:	480b883a 	mov	r5,r9
  802b6c:	0805fe00 	call	805fe0 <__subdf3>
  802b70:	1009883a 	mov	r4,r2
  802b74:	180b883a 	mov	r5,r3
  802b78:	2005883a 	mov	r2,r4
  802b7c:	2807883a 	mov	r3,r5
  802b80:	e13ffc17 	ldw	r4,-16(fp)
  802b84:	20801b15 	stw	r2,108(r4)
  802b88:	20c01c15 	stw	r3,112(r4)
  }
  d->_cg20 = d->_Pacemaker_local__Atrig3 || d->_Pacemaker_local__Atrig4 || d->_Pacemaker_local__Atrig5;
  802b8c:	e0bffc17 	ldw	r2,-16(fp)
  802b90:	10801ec3 	ldbu	r2,123(r2)
  802b94:	10803fcc 	andi	r2,r2,255
  802b98:	1080201c 	xori	r2,r2,128
  802b9c:	10bfe004 	addi	r2,r2,-128
  802ba0:	10000c1e 	bne	r2,zero,802bd4 <logic+0x1a04>
  802ba4:	e0bffc17 	ldw	r2,-16(fp)
  802ba8:	10801f03 	ldbu	r2,124(r2)
  802bac:	10803fcc 	andi	r2,r2,255
  802bb0:	1080201c 	xori	r2,r2,128
  802bb4:	10bfe004 	addi	r2,r2,-128
  802bb8:	1000061e 	bne	r2,zero,802bd4 <logic+0x1a04>
  802bbc:	e0bffc17 	ldw	r2,-16(fp)
  802bc0:	10801f43 	ldbu	r2,125(r2)
  802bc4:	10803fcc 	andi	r2,r2,255
  802bc8:	1080201c 	xori	r2,r2,128
  802bcc:	10bfe004 	addi	r2,r2,-128
  802bd0:	10000226 	beq	r2,zero,802bdc <logic+0x1a0c>
  802bd4:	00800044 	movi	r2,1
  802bd8:	00000106 	br	802be0 <logic+0x1a10>
  802bdc:	0005883a 	mov	r2,zero
  802be0:	1007883a 	mov	r3,r2
  802be4:	e0bffc17 	ldw	r2,-16(fp)
  802be8:	10c033c5 	stb	r3,207(r2)
  d->_g19 = d->_g24 && !d->_cg19;
  802bec:	e0bffc17 	ldw	r2,-16(fp)
  802bf0:	10802343 	ldbu	r2,141(r2)
  802bf4:	10803fcc 	andi	r2,r2,255
  802bf8:	1080201c 	xori	r2,r2,128
  802bfc:	10bfe004 	addi	r2,r2,-128
  802c00:	10000826 	beq	r2,zero,802c24 <logic+0x1a54>
  802c04:	e0bffc17 	ldw	r2,-16(fp)
  802c08:	10803403 	ldbu	r2,208(r2)
  802c0c:	10803fcc 	andi	r2,r2,255
  802c10:	1080201c 	xori	r2,r2,128
  802c14:	10bfe004 	addi	r2,r2,-128
  802c18:	1000021e 	bne	r2,zero,802c24 <logic+0x1a54>
  802c1c:	00800044 	movi	r2,1
  802c20:	00000106 	br	802c28 <logic+0x1a58>
  802c24:	0005883a 	mov	r2,zero
  802c28:	1007883a 	mov	r3,r2
  802c2c:	e0bffc17 	ldw	r2,-16(fp)
  802c30:	10c02245 	stb	r3,137(r2)
  d->_cg22 = d->_Pacemaker_local__Atrig3 || d->_Pacemaker_local__Atrig4 || d->_Pacemaker_local__Atrig5;
  802c34:	e0bffc17 	ldw	r2,-16(fp)
  802c38:	10801ec3 	ldbu	r2,123(r2)
  802c3c:	10803fcc 	andi	r2,r2,255
  802c40:	1080201c 	xori	r2,r2,128
  802c44:	10bfe004 	addi	r2,r2,-128
  802c48:	10000c1e 	bne	r2,zero,802c7c <logic+0x1aac>
  802c4c:	e0bffc17 	ldw	r2,-16(fp)
  802c50:	10801f03 	ldbu	r2,124(r2)
  802c54:	10803fcc 	andi	r2,r2,255
  802c58:	1080201c 	xori	r2,r2,128
  802c5c:	10bfe004 	addi	r2,r2,-128
  802c60:	1000061e 	bne	r2,zero,802c7c <logic+0x1aac>
  802c64:	e0bffc17 	ldw	r2,-16(fp)
  802c68:	10801f43 	ldbu	r2,125(r2)
  802c6c:	10803fcc 	andi	r2,r2,255
  802c70:	1080201c 	xori	r2,r2,128
  802c74:	10bfe004 	addi	r2,r2,-128
  802c78:	10000226 	beq	r2,zero,802c84 <logic+0x1ab4>
  802c7c:	00800044 	movi	r2,1
  802c80:	00000106 	br	802c88 <logic+0x1ab8>
  802c84:	0005883a 	mov	r2,zero
  802c88:	1007883a 	mov	r3,r2
  802c8c:	e0bffc17 	ldw	r2,-16(fp)
  802c90:	10c03445 	stb	r3,209(r2)
  d->_g21 = d->_g18 && d->_cg20 || d->_g19 && d->_cg22;
  802c94:	e0bffc17 	ldw	r2,-16(fp)
  802c98:	10802203 	ldbu	r2,136(r2)
  802c9c:	10803fcc 	andi	r2,r2,255
  802ca0:	1080201c 	xori	r2,r2,128
  802ca4:	10bfe004 	addi	r2,r2,-128
  802ca8:	10000626 	beq	r2,zero,802cc4 <logic+0x1af4>
  802cac:	e0bffc17 	ldw	r2,-16(fp)
  802cb0:	108033c3 	ldbu	r2,207(r2)
  802cb4:	10803fcc 	andi	r2,r2,255
  802cb8:	1080201c 	xori	r2,r2,128
  802cbc:	10bfe004 	addi	r2,r2,-128
  802cc0:	10000c1e 	bne	r2,zero,802cf4 <logic+0x1b24>
  802cc4:	e0bffc17 	ldw	r2,-16(fp)
  802cc8:	10802243 	ldbu	r2,137(r2)
  802ccc:	10803fcc 	andi	r2,r2,255
  802cd0:	1080201c 	xori	r2,r2,128
  802cd4:	10bfe004 	addi	r2,r2,-128
  802cd8:	10000826 	beq	r2,zero,802cfc <logic+0x1b2c>
  802cdc:	e0bffc17 	ldw	r2,-16(fp)
  802ce0:	10803443 	ldbu	r2,209(r2)
  802ce4:	10803fcc 	andi	r2,r2,255
  802ce8:	1080201c 	xori	r2,r2,128
  802cec:	10bfe004 	addi	r2,r2,-128
  802cf0:	10000226 	beq	r2,zero,802cfc <logic+0x1b2c>
  802cf4:	00800044 	movi	r2,1
  802cf8:	00000106 	br	802d00 <logic+0x1b30>
  802cfc:	0005883a 	mov	r2,zero
  802d00:	1007883a 	mov	r3,r2
  802d04:	e0bffc17 	ldw	r2,-16(fp)
  802d08:	10c022c5 	stb	r3,139(r2)
  d->_g35 = d->_pg5;
  802d0c:	e0bffc17 	ldw	r2,-16(fp)
  802d10:	10c043c3 	ldbu	r3,271(r2)
  802d14:	e0bffc17 	ldw	r2,-16(fp)
  802d18:	10c02545 	stb	r3,149(r2)
  d->_g29 = d->_pg93;
  802d1c:	e0bffc17 	ldw	r2,-16(fp)
  802d20:	10c04403 	ldbu	r3,272(r2)
  802d24:	e0bffc17 	ldw	r2,-16(fp)
  802d28:	10c02405 	stb	r3,144(r2)
  d->_g32_e3 = !(d->_g35 || d->_g29);
  802d2c:	e0bffc17 	ldw	r2,-16(fp)
  802d30:	10802543 	ldbu	r2,149(r2)
  802d34:	10803fcc 	andi	r2,r2,255
  802d38:	1080201c 	xori	r2,r2,128
  802d3c:	10bfe004 	addi	r2,r2,-128
  802d40:	1000081e 	bne	r2,zero,802d64 <logic+0x1b94>
  802d44:	e0bffc17 	ldw	r2,-16(fp)
  802d48:	10802403 	ldbu	r2,144(r2)
  802d4c:	10803fcc 	andi	r2,r2,255
  802d50:	1080201c 	xori	r2,r2,128
  802d54:	10bfe004 	addi	r2,r2,-128
  802d58:	1000021e 	bne	r2,zero,802d64 <logic+0x1b94>
  802d5c:	00800044 	movi	r2,1
  802d60:	00000106 	br	802d68 <logic+0x1b98>
  802d64:	0005883a 	mov	r2,zero
  802d68:	1007883a 	mov	r3,r2
  802d6c:	e0bffc17 	ldw	r2,-16(fp)
  802d70:	10c03dc5 	stb	r3,247(r2)
  d->_g35 = d->_g29 || d->_g35;
  802d74:	e0bffc17 	ldw	r2,-16(fp)
  802d78:	10802403 	ldbu	r2,144(r2)
  802d7c:	10803fcc 	andi	r2,r2,255
  802d80:	1080201c 	xori	r2,r2,128
  802d84:	10bfe004 	addi	r2,r2,-128
  802d88:	1000061e 	bne	r2,zero,802da4 <logic+0x1bd4>
  802d8c:	e0bffc17 	ldw	r2,-16(fp)
  802d90:	10802543 	ldbu	r2,149(r2)
  802d94:	10803fcc 	andi	r2,r2,255
  802d98:	1080201c 	xori	r2,r2,128
  802d9c:	10bfe004 	addi	r2,r2,-128
  802da0:	10000226 	beq	r2,zero,802dac <logic+0x1bdc>
  802da4:	00800044 	movi	r2,1
  802da8:	00000106 	br	802db0 <logic+0x1be0>
  802dac:	0005883a 	mov	r2,zero
  802db0:	1007883a 	mov	r3,r2
  802db4:	e0bffc17 	ldw	r2,-16(fp)
  802db8:	10c02545 	stb	r3,149(r2)
  d->_cg30 = d->URI_Clock < d->URI;
  802dbc:	e0bffc17 	ldw	r2,-16(fp)
  802dc0:	14000c17 	ldw	r16,48(r2)
  802dc4:	14400d17 	ldw	r17,52(r2)
  802dc8:	e0bffc17 	ldw	r2,-16(fp)
  802dcc:	10800517 	ldw	r2,20(r2)
  802dd0:	1009883a 	mov	r4,r2
  802dd4:	08068dc0 	call	8068dc <__floatsidf>
  802dd8:	1009883a 	mov	r4,r2
  802ddc:	180b883a 	mov	r5,r3
  802de0:	04800044 	movi	r18,1
  802de4:	200d883a 	mov	r6,r4
  802de8:	280f883a 	mov	r7,r5
  802dec:	8009883a 	mov	r4,r16
  802df0:	880b883a 	mov	r5,r17
  802df4:	0805eec0 	call	805eec <__ledf2>
  802df8:	10000116 	blt	r2,zero,802e00 <logic+0x1c30>
  802dfc:	0025883a 	mov	r18,zero
  802e00:	9007883a 	mov	r3,r18
  802e04:	e0bffc17 	ldw	r2,-16(fp)
  802e08:	10c03585 	stb	r3,214(r2)
  d->_g29 = d->_g35 && d->_cg30;
  802e0c:	e0bffc17 	ldw	r2,-16(fp)
  802e10:	10802543 	ldbu	r2,149(r2)
  802e14:	10803fcc 	andi	r2,r2,255
  802e18:	1080201c 	xori	r2,r2,128
  802e1c:	10bfe004 	addi	r2,r2,-128
  802e20:	10000826 	beq	r2,zero,802e44 <logic+0x1c74>
  802e24:	e0bffc17 	ldw	r2,-16(fp)
  802e28:	10803583 	ldbu	r2,214(r2)
  802e2c:	10803fcc 	andi	r2,r2,255
  802e30:	1080201c 	xori	r2,r2,128
  802e34:	10bfe004 	addi	r2,r2,-128
  802e38:	10000226 	beq	r2,zero,802e44 <logic+0x1c74>
  802e3c:	00800044 	movi	r2,1
  802e40:	00000106 	br	802e48 <logic+0x1c78>
  802e44:	0005883a 	mov	r2,zero
  802e48:	1007883a 	mov	r3,r2
  802e4c:	e0bffc17 	ldw	r2,-16(fp)
  802e50:	10c02405 	stb	r3,144(r2)
  if (d->_g29) {
  802e54:	e0bffc17 	ldw	r2,-16(fp)
  802e58:	10802403 	ldbu	r2,144(r2)
  802e5c:	10803fcc 	andi	r2,r2,255
  802e60:	1080201c 	xori	r2,r2,128
  802e64:	10bfe004 	addi	r2,r2,-128
  802e68:	10003426 	beq	r2,zero,802f3c <logic+0x1d6c>
    d->sleepT = (d->sleepT < (d->URI - d->URI_Clock)) ? d->sleepT : (d->URI - d->URI_Clock);
  802e6c:	e0bffc17 	ldw	r2,-16(fp)
  802e70:	14001b17 	ldw	r16,108(r2)
  802e74:	14401c17 	ldw	r17,112(r2)
  802e78:	e0bffc17 	ldw	r2,-16(fp)
  802e7c:	10800517 	ldw	r2,20(r2)
  802e80:	1009883a 	mov	r4,r2
  802e84:	08068dc0 	call	8068dc <__floatsidf>
  802e88:	1011883a 	mov	r8,r2
  802e8c:	1813883a 	mov	r9,r3
  802e90:	e13ffc17 	ldw	r4,-16(fp)
  802e94:	20800c17 	ldw	r2,48(r4)
  802e98:	20c00d17 	ldw	r3,52(r4)
  802e9c:	100d883a 	mov	r6,r2
  802ea0:	180f883a 	mov	r7,r3
  802ea4:	4009883a 	mov	r4,r8
  802ea8:	480b883a 	mov	r5,r9
  802eac:	0805fe00 	call	805fe0 <__subdf3>
  802eb0:	1009883a 	mov	r4,r2
  802eb4:	180b883a 	mov	r5,r3
  802eb8:	2005883a 	mov	r2,r4
  802ebc:	2807883a 	mov	r3,r5
  802ec0:	100d883a 	mov	r6,r2
  802ec4:	180f883a 	mov	r7,r3
  802ec8:	8009883a 	mov	r4,r16
  802ecc:	880b883a 	mov	r5,r17
  802ed0:	0805eec0 	call	805eec <__ledf2>
  802ed4:	1000040e 	bge	r2,zero,802ee8 <logic+0x1d18>
  802ed8:	e13ffc17 	ldw	r4,-16(fp)
  802edc:	20801b17 	ldw	r2,108(r4)
  802ee0:	20c01c17 	ldw	r3,112(r4)
  802ee4:	00001206 	br	802f30 <logic+0x1d60>
  802ee8:	e0bffc17 	ldw	r2,-16(fp)
  802eec:	10800517 	ldw	r2,20(r2)
  802ef0:	1009883a 	mov	r4,r2
  802ef4:	08068dc0 	call	8068dc <__floatsidf>
  802ef8:	1011883a 	mov	r8,r2
  802efc:	1813883a 	mov	r9,r3
  802f00:	e13ffc17 	ldw	r4,-16(fp)
  802f04:	20800c17 	ldw	r2,48(r4)
  802f08:	20c00d17 	ldw	r3,52(r4)
  802f0c:	100d883a 	mov	r6,r2
  802f10:	180f883a 	mov	r7,r3
  802f14:	4009883a 	mov	r4,r8
  802f18:	480b883a 	mov	r5,r9
  802f1c:	0805fe00 	call	805fe0 <__subdf3>
  802f20:	1009883a 	mov	r4,r2
  802f24:	180b883a 	mov	r5,r3
  802f28:	2005883a 	mov	r2,r4
  802f2c:	2807883a 	mov	r3,r5
  802f30:	e13ffc17 	ldw	r4,-16(fp)
  802f34:	20801b15 	stw	r2,108(r4)
  802f38:	20c01c15 	stw	r3,112(r4)
  }
  d->_cg31 = d->_Pacemaker_local__Atrig3 || d->_Pacemaker_local__Atrig4 || d->_Pacemaker_local__Atrig5;
  802f3c:	e0bffc17 	ldw	r2,-16(fp)
  802f40:	10801ec3 	ldbu	r2,123(r2)
  802f44:	10803fcc 	andi	r2,r2,255
  802f48:	1080201c 	xori	r2,r2,128
  802f4c:	10bfe004 	addi	r2,r2,-128
  802f50:	10000c1e 	bne	r2,zero,802f84 <logic+0x1db4>
  802f54:	e0bffc17 	ldw	r2,-16(fp)
  802f58:	10801f03 	ldbu	r2,124(r2)
  802f5c:	10803fcc 	andi	r2,r2,255
  802f60:	1080201c 	xori	r2,r2,128
  802f64:	10bfe004 	addi	r2,r2,-128
  802f68:	1000061e 	bne	r2,zero,802f84 <logic+0x1db4>
  802f6c:	e0bffc17 	ldw	r2,-16(fp)
  802f70:	10801f43 	ldbu	r2,125(r2)
  802f74:	10803fcc 	andi	r2,r2,255
  802f78:	1080201c 	xori	r2,r2,128
  802f7c:	10bfe004 	addi	r2,r2,-128
  802f80:	10000226 	beq	r2,zero,802f8c <logic+0x1dbc>
  802f84:	00800044 	movi	r2,1
  802f88:	00000106 	br	802f90 <logic+0x1dc0>
  802f8c:	0005883a 	mov	r2,zero
  802f90:	1007883a 	mov	r3,r2
  802f94:	e0bffc17 	ldw	r2,-16(fp)
  802f98:	10c03545 	stb	r3,213(r2)
  d->_g30 = d->_g35 && !d->_cg30;
  802f9c:	e0bffc17 	ldw	r2,-16(fp)
  802fa0:	10802543 	ldbu	r2,149(r2)
  802fa4:	10803fcc 	andi	r2,r2,255
  802fa8:	1080201c 	xori	r2,r2,128
  802fac:	10bfe004 	addi	r2,r2,-128
  802fb0:	10000826 	beq	r2,zero,802fd4 <logic+0x1e04>
  802fb4:	e0bffc17 	ldw	r2,-16(fp)
  802fb8:	10803583 	ldbu	r2,214(r2)
  802fbc:	10803fcc 	andi	r2,r2,255
  802fc0:	1080201c 	xori	r2,r2,128
  802fc4:	10bfe004 	addi	r2,r2,-128
  802fc8:	1000021e 	bne	r2,zero,802fd4 <logic+0x1e04>
  802fcc:	00800044 	movi	r2,1
  802fd0:	00000106 	br	802fd8 <logic+0x1e08>
  802fd4:	0005883a 	mov	r2,zero
  802fd8:	1007883a 	mov	r3,r2
  802fdc:	e0bffc17 	ldw	r2,-16(fp)
  802fe0:	10c02445 	stb	r3,145(r2)
  d->_cg33 = d->_Pacemaker_local__Atrig3 || d->_Pacemaker_local__Atrig4 || d->_Pacemaker_local__Atrig5;
  802fe4:	e0bffc17 	ldw	r2,-16(fp)
  802fe8:	10801ec3 	ldbu	r2,123(r2)
  802fec:	10803fcc 	andi	r2,r2,255
  802ff0:	1080201c 	xori	r2,r2,128
  802ff4:	10bfe004 	addi	r2,r2,-128
  802ff8:	10000c1e 	bne	r2,zero,80302c <logic+0x1e5c>
  802ffc:	e0bffc17 	ldw	r2,-16(fp)
  803000:	10801f03 	ldbu	r2,124(r2)
  803004:	10803fcc 	andi	r2,r2,255
  803008:	1080201c 	xori	r2,r2,128
  80300c:	10bfe004 	addi	r2,r2,-128
  803010:	1000061e 	bne	r2,zero,80302c <logic+0x1e5c>
  803014:	e0bffc17 	ldw	r2,-16(fp)
  803018:	10801f43 	ldbu	r2,125(r2)
  80301c:	10803fcc 	andi	r2,r2,255
  803020:	1080201c 	xori	r2,r2,128
  803024:	10bfe004 	addi	r2,r2,-128
  803028:	10000226 	beq	r2,zero,803034 <logic+0x1e64>
  80302c:	00800044 	movi	r2,1
  803030:	00000106 	br	803038 <logic+0x1e68>
  803034:	0005883a 	mov	r2,zero
  803038:	1007883a 	mov	r3,r2
  80303c:	e0bffc17 	ldw	r2,-16(fp)
  803040:	10c035c5 	stb	r3,215(r2)
  d->_g32 = d->_g29 && d->_cg31 || d->_g30 && d->_cg33;
  803044:	e0bffc17 	ldw	r2,-16(fp)
  803048:	10802403 	ldbu	r2,144(r2)
  80304c:	10803fcc 	andi	r2,r2,255
  803050:	1080201c 	xori	r2,r2,128
  803054:	10bfe004 	addi	r2,r2,-128
  803058:	10000626 	beq	r2,zero,803074 <logic+0x1ea4>
  80305c:	e0bffc17 	ldw	r2,-16(fp)
  803060:	10803543 	ldbu	r2,213(r2)
  803064:	10803fcc 	andi	r2,r2,255
  803068:	1080201c 	xori	r2,r2,128
  80306c:	10bfe004 	addi	r2,r2,-128
  803070:	10000c1e 	bne	r2,zero,8030a4 <logic+0x1ed4>
  803074:	e0bffc17 	ldw	r2,-16(fp)
  803078:	10802443 	ldbu	r2,145(r2)
  80307c:	10803fcc 	andi	r2,r2,255
  803080:	1080201c 	xori	r2,r2,128
  803084:	10bfe004 	addi	r2,r2,-128
  803088:	10000826 	beq	r2,zero,8030ac <logic+0x1edc>
  80308c:	e0bffc17 	ldw	r2,-16(fp)
  803090:	108035c3 	ldbu	r2,215(r2)
  803094:	10803fcc 	andi	r2,r2,255
  803098:	1080201c 	xori	r2,r2,128
  80309c:	10bfe004 	addi	r2,r2,-128
  8030a0:	10000226 	beq	r2,zero,8030ac <logic+0x1edc>
  8030a4:	00800044 	movi	r2,1
  8030a8:	00000106 	br	8030b0 <logic+0x1ee0>
  8030ac:	0005883a 	mov	r2,zero
  8030b0:	1007883a 	mov	r3,r2
  8030b4:	e0bffc17 	ldw	r2,-16(fp)
  8030b8:	10c024c5 	stb	r3,147(r2)
  d->_g46 = d->_pg16;
  8030bc:	e0bffc17 	ldw	r2,-16(fp)
  8030c0:	10c04443 	ldbu	r3,273(r2)
  8030c4:	e0bffc17 	ldw	r2,-16(fp)
  8030c8:	10c02745 	stb	r3,157(r2)
  d->_g40 = d->_pg11;
  8030cc:	e0bffc17 	ldw	r2,-16(fp)
  8030d0:	10c04483 	ldbu	r3,274(r2)
  8030d4:	e0bffc17 	ldw	r2,-16(fp)
  8030d8:	10c02605 	stb	r3,152(r2)
  d->_g43_e4 = !(d->_g46 || d->_g40);
  8030dc:	e0bffc17 	ldw	r2,-16(fp)
  8030e0:	10802743 	ldbu	r2,157(r2)
  8030e4:	10803fcc 	andi	r2,r2,255
  8030e8:	1080201c 	xori	r2,r2,128
  8030ec:	10bfe004 	addi	r2,r2,-128
  8030f0:	1000081e 	bne	r2,zero,803114 <logic+0x1f44>
  8030f4:	e0bffc17 	ldw	r2,-16(fp)
  8030f8:	10802603 	ldbu	r2,152(r2)
  8030fc:	10803fcc 	andi	r2,r2,255
  803100:	1080201c 	xori	r2,r2,128
  803104:	10bfe004 	addi	r2,r2,-128
  803108:	1000021e 	bne	r2,zero,803114 <logic+0x1f44>
  80310c:	00800044 	movi	r2,1
  803110:	00000106 	br	803118 <logic+0x1f48>
  803114:	0005883a 	mov	r2,zero
  803118:	1007883a 	mov	r3,r2
  80311c:	e0bffc17 	ldw	r2,-16(fp)
  803120:	10c03e05 	stb	r3,248(r2)
  d->_g40 = d->_g40 || d->_g46;
  803124:	e0bffc17 	ldw	r2,-16(fp)
  803128:	10802603 	ldbu	r2,152(r2)
  80312c:	10803fcc 	andi	r2,r2,255
  803130:	1080201c 	xori	r2,r2,128
  803134:	10bfe004 	addi	r2,r2,-128
  803138:	1000061e 	bne	r2,zero,803154 <logic+0x1f84>
  80313c:	e0bffc17 	ldw	r2,-16(fp)
  803140:	10802743 	ldbu	r2,157(r2)
  803144:	10803fcc 	andi	r2,r2,255
  803148:	1080201c 	xori	r2,r2,128
  80314c:	10bfe004 	addi	r2,r2,-128
  803150:	10000226 	beq	r2,zero,80315c <logic+0x1f8c>
  803154:	00800044 	movi	r2,1
  803158:	00000106 	br	803160 <logic+0x1f90>
  80315c:	0005883a 	mov	r2,zero
  803160:	1007883a 	mov	r3,r2
  803164:	e0bffc17 	ldw	r2,-16(fp)
  803168:	10c02605 	stb	r3,152(r2)
  d->_cg41 = d->AVI_Clock < d->AVI;
  80316c:	e0bffc17 	ldw	r2,-16(fp)
  803170:	14001017 	ldw	r16,64(r2)
  803174:	14401117 	ldw	r17,68(r2)
  803178:	e0bffc17 	ldw	r2,-16(fp)
  80317c:	10800017 	ldw	r2,0(r2)
  803180:	1009883a 	mov	r4,r2
  803184:	08068dc0 	call	8068dc <__floatsidf>
  803188:	1009883a 	mov	r4,r2
  80318c:	180b883a 	mov	r5,r3
  803190:	04800044 	movi	r18,1
  803194:	200d883a 	mov	r6,r4
  803198:	280f883a 	mov	r7,r5
  80319c:	8009883a 	mov	r4,r16
  8031a0:	880b883a 	mov	r5,r17
  8031a4:	0805eec0 	call	805eec <__ledf2>
  8031a8:	10000116 	blt	r2,zero,8031b0 <logic+0x1fe0>
  8031ac:	0025883a 	mov	r18,zero
  8031b0:	9007883a 	mov	r3,r18
  8031b4:	e0bffc17 	ldw	r2,-16(fp)
  8031b8:	10c03705 	stb	r3,220(r2)
  d->_g46 = d->_g40 && d->_cg41;
  8031bc:	e0bffc17 	ldw	r2,-16(fp)
  8031c0:	10802603 	ldbu	r2,152(r2)
  8031c4:	10803fcc 	andi	r2,r2,255
  8031c8:	1080201c 	xori	r2,r2,128
  8031cc:	10bfe004 	addi	r2,r2,-128
  8031d0:	10000826 	beq	r2,zero,8031f4 <logic+0x2024>
  8031d4:	e0bffc17 	ldw	r2,-16(fp)
  8031d8:	10803703 	ldbu	r2,220(r2)
  8031dc:	10803fcc 	andi	r2,r2,255
  8031e0:	1080201c 	xori	r2,r2,128
  8031e4:	10bfe004 	addi	r2,r2,-128
  8031e8:	10000226 	beq	r2,zero,8031f4 <logic+0x2024>
  8031ec:	00800044 	movi	r2,1
  8031f0:	00000106 	br	8031f8 <logic+0x2028>
  8031f4:	0005883a 	mov	r2,zero
  8031f8:	1007883a 	mov	r3,r2
  8031fc:	e0bffc17 	ldw	r2,-16(fp)
  803200:	10c02745 	stb	r3,157(r2)
  if (d->_g46) {
  803204:	e0bffc17 	ldw	r2,-16(fp)
  803208:	10802743 	ldbu	r2,157(r2)
  80320c:	10803fcc 	andi	r2,r2,255
  803210:	1080201c 	xori	r2,r2,128
  803214:	10bfe004 	addi	r2,r2,-128
  803218:	10003426 	beq	r2,zero,8032ec <logic+0x211c>
    d->sleepT = (d->sleepT < (d->AVI - d->AVI_Clock)) ? d->sleepT : (d->AVI - d->AVI_Clock);
  80321c:	e0bffc17 	ldw	r2,-16(fp)
  803220:	14001b17 	ldw	r16,108(r2)
  803224:	14401c17 	ldw	r17,112(r2)
  803228:	e0bffc17 	ldw	r2,-16(fp)
  80322c:	10800017 	ldw	r2,0(r2)
  803230:	1009883a 	mov	r4,r2
  803234:	08068dc0 	call	8068dc <__floatsidf>
  803238:	1011883a 	mov	r8,r2
  80323c:	1813883a 	mov	r9,r3
  803240:	e13ffc17 	ldw	r4,-16(fp)
  803244:	20801017 	ldw	r2,64(r4)
  803248:	20c01117 	ldw	r3,68(r4)
  80324c:	100d883a 	mov	r6,r2
  803250:	180f883a 	mov	r7,r3
  803254:	4009883a 	mov	r4,r8
  803258:	480b883a 	mov	r5,r9
  80325c:	0805fe00 	call	805fe0 <__subdf3>
  803260:	1009883a 	mov	r4,r2
  803264:	180b883a 	mov	r5,r3
  803268:	2005883a 	mov	r2,r4
  80326c:	2807883a 	mov	r3,r5
  803270:	100d883a 	mov	r6,r2
  803274:	180f883a 	mov	r7,r3
  803278:	8009883a 	mov	r4,r16
  80327c:	880b883a 	mov	r5,r17
  803280:	0805eec0 	call	805eec <__ledf2>
  803284:	1000040e 	bge	r2,zero,803298 <logic+0x20c8>
  803288:	e13ffc17 	ldw	r4,-16(fp)
  80328c:	20801b17 	ldw	r2,108(r4)
  803290:	20c01c17 	ldw	r3,112(r4)
  803294:	00001206 	br	8032e0 <logic+0x2110>
  803298:	e0bffc17 	ldw	r2,-16(fp)
  80329c:	10800017 	ldw	r2,0(r2)
  8032a0:	1009883a 	mov	r4,r2
  8032a4:	08068dc0 	call	8068dc <__floatsidf>
  8032a8:	1011883a 	mov	r8,r2
  8032ac:	1813883a 	mov	r9,r3
  8032b0:	e13ffc17 	ldw	r4,-16(fp)
  8032b4:	20801017 	ldw	r2,64(r4)
  8032b8:	20c01117 	ldw	r3,68(r4)
  8032bc:	100d883a 	mov	r6,r2
  8032c0:	180f883a 	mov	r7,r3
  8032c4:	4009883a 	mov	r4,r8
  8032c8:	480b883a 	mov	r5,r9
  8032cc:	0805fe00 	call	805fe0 <__subdf3>
  8032d0:	1009883a 	mov	r4,r2
  8032d4:	180b883a 	mov	r5,r3
  8032d8:	2005883a 	mov	r2,r4
  8032dc:	2807883a 	mov	r3,r5
  8032e0:	e13ffc17 	ldw	r4,-16(fp)
  8032e4:	20801b15 	stw	r2,108(r4)
  8032e8:	20c01c15 	stw	r3,112(r4)
  }
  d->_cg42 = d->_Pacemaker_local__Atrig3 || d->_Pacemaker_local__Atrig4 || d->_Pacemaker_local__Atrig5;
  8032ec:	e0bffc17 	ldw	r2,-16(fp)
  8032f0:	10801ec3 	ldbu	r2,123(r2)
  8032f4:	10803fcc 	andi	r2,r2,255
  8032f8:	1080201c 	xori	r2,r2,128
  8032fc:	10bfe004 	addi	r2,r2,-128
  803300:	10000c1e 	bne	r2,zero,803334 <logic+0x2164>
  803304:	e0bffc17 	ldw	r2,-16(fp)
  803308:	10801f03 	ldbu	r2,124(r2)
  80330c:	10803fcc 	andi	r2,r2,255
  803310:	1080201c 	xori	r2,r2,128
  803314:	10bfe004 	addi	r2,r2,-128
  803318:	1000061e 	bne	r2,zero,803334 <logic+0x2164>
  80331c:	e0bffc17 	ldw	r2,-16(fp)
  803320:	10801f43 	ldbu	r2,125(r2)
  803324:	10803fcc 	andi	r2,r2,255
  803328:	1080201c 	xori	r2,r2,128
  80332c:	10bfe004 	addi	r2,r2,-128
  803330:	10000226 	beq	r2,zero,80333c <logic+0x216c>
  803334:	00800044 	movi	r2,1
  803338:	00000106 	br	803340 <logic+0x2170>
  80333c:	0005883a 	mov	r2,zero
  803340:	1007883a 	mov	r3,r2
  803344:	e0bffc17 	ldw	r2,-16(fp)
  803348:	10c036c5 	stb	r3,219(r2)
  d->_g41 = d->_g40 && !d->_cg41;
  80334c:	e0bffc17 	ldw	r2,-16(fp)
  803350:	10802603 	ldbu	r2,152(r2)
  803354:	10803fcc 	andi	r2,r2,255
  803358:	1080201c 	xori	r2,r2,128
  80335c:	10bfe004 	addi	r2,r2,-128
  803360:	10000826 	beq	r2,zero,803384 <logic+0x21b4>
  803364:	e0bffc17 	ldw	r2,-16(fp)
  803368:	10803703 	ldbu	r2,220(r2)
  80336c:	10803fcc 	andi	r2,r2,255
  803370:	1080201c 	xori	r2,r2,128
  803374:	10bfe004 	addi	r2,r2,-128
  803378:	1000021e 	bne	r2,zero,803384 <logic+0x21b4>
  80337c:	00800044 	movi	r2,1
  803380:	00000106 	br	803388 <logic+0x21b8>
  803384:	0005883a 	mov	r2,zero
  803388:	1007883a 	mov	r3,r2
  80338c:	e0bffc17 	ldw	r2,-16(fp)
  803390:	10c02645 	stb	r3,153(r2)
  d->_cg44 = d->_Pacemaker_local__Atrig3 || d->_Pacemaker_local__Atrig4 || d->_Pacemaker_local__Atrig5;
  803394:	e0bffc17 	ldw	r2,-16(fp)
  803398:	10801ec3 	ldbu	r2,123(r2)
  80339c:	10803fcc 	andi	r2,r2,255
  8033a0:	1080201c 	xori	r2,r2,128
  8033a4:	10bfe004 	addi	r2,r2,-128
  8033a8:	10000c1e 	bne	r2,zero,8033dc <logic+0x220c>
  8033ac:	e0bffc17 	ldw	r2,-16(fp)
  8033b0:	10801f03 	ldbu	r2,124(r2)
  8033b4:	10803fcc 	andi	r2,r2,255
  8033b8:	1080201c 	xori	r2,r2,128
  8033bc:	10bfe004 	addi	r2,r2,-128
  8033c0:	1000061e 	bne	r2,zero,8033dc <logic+0x220c>
  8033c4:	e0bffc17 	ldw	r2,-16(fp)
  8033c8:	10801f43 	ldbu	r2,125(r2)
  8033cc:	10803fcc 	andi	r2,r2,255
  8033d0:	1080201c 	xori	r2,r2,128
  8033d4:	10bfe004 	addi	r2,r2,-128
  8033d8:	10000226 	beq	r2,zero,8033e4 <logic+0x2214>
  8033dc:	00800044 	movi	r2,1
  8033e0:	00000106 	br	8033e8 <logic+0x2218>
  8033e4:	0005883a 	mov	r2,zero
  8033e8:	1007883a 	mov	r3,r2
  8033ec:	e0bffc17 	ldw	r2,-16(fp)
  8033f0:	10c03745 	stb	r3,221(r2)
  d->_g43 = d->_g46 && d->_cg42 || d->_g41 && d->_cg44;
  8033f4:	e0bffc17 	ldw	r2,-16(fp)
  8033f8:	10802743 	ldbu	r2,157(r2)
  8033fc:	10803fcc 	andi	r2,r2,255
  803400:	1080201c 	xori	r2,r2,128
  803404:	10bfe004 	addi	r2,r2,-128
  803408:	10000626 	beq	r2,zero,803424 <logic+0x2254>
  80340c:	e0bffc17 	ldw	r2,-16(fp)
  803410:	108036c3 	ldbu	r2,219(r2)
  803414:	10803fcc 	andi	r2,r2,255
  803418:	1080201c 	xori	r2,r2,128
  80341c:	10bfe004 	addi	r2,r2,-128
  803420:	10000c1e 	bne	r2,zero,803454 <logic+0x2284>
  803424:	e0bffc17 	ldw	r2,-16(fp)
  803428:	10802643 	ldbu	r2,153(r2)
  80342c:	10803fcc 	andi	r2,r2,255
  803430:	1080201c 	xori	r2,r2,128
  803434:	10bfe004 	addi	r2,r2,-128
  803438:	10000826 	beq	r2,zero,80345c <logic+0x228c>
  80343c:	e0bffc17 	ldw	r2,-16(fp)
  803440:	10803743 	ldbu	r2,221(r2)
  803444:	10803fcc 	andi	r2,r2,255
  803448:	1080201c 	xori	r2,r2,128
  80344c:	10bfe004 	addi	r2,r2,-128
  803450:	10000226 	beq	r2,zero,80345c <logic+0x228c>
  803454:	00800044 	movi	r2,1
  803458:	00000106 	br	803460 <logic+0x2290>
  80345c:	0005883a 	mov	r2,zero
  803460:	1007883a 	mov	r3,r2
  803464:	e0bffc17 	ldw	r2,-16(fp)
  803468:	10c026c5 	stb	r3,155(r2)
  d->_g50 = !d->_g50;
  80346c:	e0bffc17 	ldw	r2,-16(fp)
  803470:	108027c3 	ldbu	r2,159(r2)
  803474:	10803fcc 	andi	r2,r2,255
  803478:	1080201c 	xori	r2,r2,128
  80347c:	10bfe004 	addi	r2,r2,-128
  803480:	1005003a 	cmpeq	r2,r2,zero
  803484:	1007883a 	mov	r3,r2
  803488:	e0bffc17 	ldw	r2,-16(fp)
  80348c:	10c027c5 	stb	r3,159(r2)
  d->_g51 = d->_g51 || d->_g54 || d->_g56;
  803490:	e0bffc17 	ldw	r2,-16(fp)
  803494:	10802803 	ldbu	r2,160(r2)
  803498:	10803fcc 	andi	r2,r2,255
  80349c:	1080201c 	xori	r2,r2,128
  8034a0:	10bfe004 	addi	r2,r2,-128
  8034a4:	10000c1e 	bne	r2,zero,8034d8 <logic+0x2308>
  8034a8:	e0bffc17 	ldw	r2,-16(fp)
  8034ac:	108028c3 	ldbu	r2,163(r2)
  8034b0:	10803fcc 	andi	r2,r2,255
  8034b4:	1080201c 	xori	r2,r2,128
  8034b8:	10bfe004 	addi	r2,r2,-128
  8034bc:	1000061e 	bne	r2,zero,8034d8 <logic+0x2308>
  8034c0:	e0bffc17 	ldw	r2,-16(fp)
  8034c4:	10802943 	ldbu	r2,165(r2)
  8034c8:	10803fcc 	andi	r2,r2,255
  8034cc:	1080201c 	xori	r2,r2,128
  8034d0:	10bfe004 	addi	r2,r2,-128
  8034d4:	10000226 	beq	r2,zero,8034e0 <logic+0x2310>
  8034d8:	00800044 	movi	r2,1
  8034dc:	00000106 	br	8034e4 <logic+0x2314>
  8034e0:	0005883a 	mov	r2,zero
  8034e4:	1007883a 	mov	r3,r2
  8034e8:	e0bffc17 	ldw	r2,-16(fp)
  8034ec:	10c02805 	stb	r3,160(r2)
  d->_g56 = (d->_g135 || d->_g10) && (d->_g21_e2 || d->_g21) && (d->_g32_e3 || d->_g32) && (d->_g43_e4 || d->_g43) && (d->_g50 || d->_g51) && (d->_g10 || d->_g21 || d->_g32 || d->_g43 || d->_g51);
  8034f0:	e0bffc17 	ldw	r2,-16(fp)
  8034f4:	10803143 	ldbu	r2,197(r2)
  8034f8:	10803fcc 	andi	r2,r2,255
  8034fc:	1080201c 	xori	r2,r2,128
  803500:	10bfe004 	addi	r2,r2,-128
  803504:	1000061e 	bne	r2,zero,803520 <logic+0x2350>
  803508:	e0bffc17 	ldw	r2,-16(fp)
  80350c:	108020c3 	ldbu	r2,131(r2)
  803510:	10803fcc 	andi	r2,r2,255
  803514:	1080201c 	xori	r2,r2,128
  803518:	10bfe004 	addi	r2,r2,-128
  80351c:	10005026 	beq	r2,zero,803660 <logic+0x2490>
  803520:	e0bffc17 	ldw	r2,-16(fp)
  803524:	10803d83 	ldbu	r2,246(r2)
  803528:	10803fcc 	andi	r2,r2,255
  80352c:	1080201c 	xori	r2,r2,128
  803530:	10bfe004 	addi	r2,r2,-128
  803534:	1000061e 	bne	r2,zero,803550 <logic+0x2380>
  803538:	e0bffc17 	ldw	r2,-16(fp)
  80353c:	108022c3 	ldbu	r2,139(r2)
  803540:	10803fcc 	andi	r2,r2,255
  803544:	1080201c 	xori	r2,r2,128
  803548:	10bfe004 	addi	r2,r2,-128
  80354c:	10004426 	beq	r2,zero,803660 <logic+0x2490>
  803550:	e0bffc17 	ldw	r2,-16(fp)
  803554:	10803dc3 	ldbu	r2,247(r2)
  803558:	10803fcc 	andi	r2,r2,255
  80355c:	1080201c 	xori	r2,r2,128
  803560:	10bfe004 	addi	r2,r2,-128
  803564:	1000061e 	bne	r2,zero,803580 <logic+0x23b0>
  803568:	e0bffc17 	ldw	r2,-16(fp)
  80356c:	108024c3 	ldbu	r2,147(r2)
  803570:	10803fcc 	andi	r2,r2,255
  803574:	1080201c 	xori	r2,r2,128
  803578:	10bfe004 	addi	r2,r2,-128
  80357c:	10003826 	beq	r2,zero,803660 <logic+0x2490>
  803580:	e0bffc17 	ldw	r2,-16(fp)
  803584:	10803e03 	ldbu	r2,248(r2)
  803588:	10803fcc 	andi	r2,r2,255
  80358c:	1080201c 	xori	r2,r2,128
  803590:	10bfe004 	addi	r2,r2,-128
  803594:	1000061e 	bne	r2,zero,8035b0 <logic+0x23e0>
  803598:	e0bffc17 	ldw	r2,-16(fp)
  80359c:	108026c3 	ldbu	r2,155(r2)
  8035a0:	10803fcc 	andi	r2,r2,255
  8035a4:	1080201c 	xori	r2,r2,128
  8035a8:	10bfe004 	addi	r2,r2,-128
  8035ac:	10002c26 	beq	r2,zero,803660 <logic+0x2490>
  8035b0:	e0bffc17 	ldw	r2,-16(fp)
  8035b4:	108027c3 	ldbu	r2,159(r2)
  8035b8:	10803fcc 	andi	r2,r2,255
  8035bc:	1080201c 	xori	r2,r2,128
  8035c0:	10bfe004 	addi	r2,r2,-128
  8035c4:	1000061e 	bne	r2,zero,8035e0 <logic+0x2410>
  8035c8:	e0bffc17 	ldw	r2,-16(fp)
  8035cc:	10802803 	ldbu	r2,160(r2)
  8035d0:	10803fcc 	andi	r2,r2,255
  8035d4:	1080201c 	xori	r2,r2,128
  8035d8:	10bfe004 	addi	r2,r2,-128
  8035dc:	10002026 	beq	r2,zero,803660 <logic+0x2490>
  8035e0:	e0bffc17 	ldw	r2,-16(fp)
  8035e4:	108020c3 	ldbu	r2,131(r2)
  8035e8:	10803fcc 	andi	r2,r2,255
  8035ec:	1080201c 	xori	r2,r2,128
  8035f0:	10bfe004 	addi	r2,r2,-128
  8035f4:	1000181e 	bne	r2,zero,803658 <logic+0x2488>
  8035f8:	e0bffc17 	ldw	r2,-16(fp)
  8035fc:	108022c3 	ldbu	r2,139(r2)
  803600:	10803fcc 	andi	r2,r2,255
  803604:	1080201c 	xori	r2,r2,128
  803608:	10bfe004 	addi	r2,r2,-128
  80360c:	1000121e 	bne	r2,zero,803658 <logic+0x2488>
  803610:	e0bffc17 	ldw	r2,-16(fp)
  803614:	108024c3 	ldbu	r2,147(r2)
  803618:	10803fcc 	andi	r2,r2,255
  80361c:	1080201c 	xori	r2,r2,128
  803620:	10bfe004 	addi	r2,r2,-128
  803624:	10000c1e 	bne	r2,zero,803658 <logic+0x2488>
  803628:	e0bffc17 	ldw	r2,-16(fp)
  80362c:	108026c3 	ldbu	r2,155(r2)
  803630:	10803fcc 	andi	r2,r2,255
  803634:	1080201c 	xori	r2,r2,128
  803638:	10bfe004 	addi	r2,r2,-128
  80363c:	1000061e 	bne	r2,zero,803658 <logic+0x2488>
  803640:	e0bffc17 	ldw	r2,-16(fp)
  803644:	10802803 	ldbu	r2,160(r2)
  803648:	10803fcc 	andi	r2,r2,255
  80364c:	1080201c 	xori	r2,r2,128
  803650:	10bfe004 	addi	r2,r2,-128
  803654:	10000226 	beq	r2,zero,803660 <logic+0x2490>
  803658:	00800044 	movi	r2,1
  80365c:	00000106 	br	803664 <logic+0x2494>
  803660:	0005883a 	mov	r2,zero
  803664:	1007883a 	mov	r3,r2
  803668:	e0bffc17 	ldw	r2,-16(fp)
  80366c:	10c02945 	stb	r3,165(r2)
  d->_cg57 = d->_Pacemaker_local__Atrig3;
  803670:	e0bffc17 	ldw	r2,-16(fp)
  803674:	10c01ec3 	ldbu	r3,123(r2)
  803678:	e0bffc17 	ldw	r2,-16(fp)
  80367c:	10c03885 	stb	r3,226(r2)
  d->_g54 = d->_g56 && !d->_cg57;
  803680:	e0bffc17 	ldw	r2,-16(fp)
  803684:	10802943 	ldbu	r2,165(r2)
  803688:	10803fcc 	andi	r2,r2,255
  80368c:	1080201c 	xori	r2,r2,128
  803690:	10bfe004 	addi	r2,r2,-128
  803694:	10000826 	beq	r2,zero,8036b8 <logic+0x24e8>
  803698:	e0bffc17 	ldw	r2,-16(fp)
  80369c:	10803883 	ldbu	r2,226(r2)
  8036a0:	10803fcc 	andi	r2,r2,255
  8036a4:	1080201c 	xori	r2,r2,128
  8036a8:	10bfe004 	addi	r2,r2,-128
  8036ac:	1000021e 	bne	r2,zero,8036b8 <logic+0x24e8>
  8036b0:	00800044 	movi	r2,1
  8036b4:	00000106 	br	8036bc <logic+0x24ec>
  8036b8:	0005883a 	mov	r2,zero
  8036bc:	1007883a 	mov	r3,r2
  8036c0:	e0bffc17 	ldw	r2,-16(fp)
  8036c4:	10c028c5 	stb	r3,163(r2)
  d->_cg97 = d->_Pacemaker_local__Atrig4;
  8036c8:	e0bffc17 	ldw	r2,-16(fp)
  8036cc:	10c01f03 	ldbu	r3,124(r2)
  8036d0:	e0bffc17 	ldw	r2,-16(fp)
  8036d4:	10c03d05 	stb	r3,244(r2)
  d->_g10_e1 = d->_g54 && d->_cg97;
  8036d8:	e0bffc17 	ldw	r2,-16(fp)
  8036dc:	108028c3 	ldbu	r2,163(r2)
  8036e0:	10803fcc 	andi	r2,r2,255
  8036e4:	1080201c 	xori	r2,r2,128
  8036e8:	10bfe004 	addi	r2,r2,-128
  8036ec:	10000826 	beq	r2,zero,803710 <logic+0x2540>
  8036f0:	e0bffc17 	ldw	r2,-16(fp)
  8036f4:	10803d03 	ldbu	r2,244(r2)
  8036f8:	10803fcc 	andi	r2,r2,255
  8036fc:	1080201c 	xori	r2,r2,128
  803700:	10bfe004 	addi	r2,r2,-128
  803704:	10000226 	beq	r2,zero,803710 <logic+0x2540>
  803708:	00800044 	movi	r2,1
  80370c:	00000106 	br	803714 <logic+0x2544>
  803710:	0005883a 	mov	r2,zero
  803714:	1007883a 	mov	r3,r2
  803718:	e0bffc17 	ldw	r2,-16(fp)
  80371c:	10c03d45 	stb	r3,245(r2)
  if (d->_g10_e1) {
  803720:	e0bffc17 	ldw	r2,-16(fp)
  803724:	10803d43 	ldbu	r2,245(r2)
  803728:	10803fcc 	andi	r2,r2,255
  80372c:	1080201c 	xori	r2,r2,128
  803730:	10bfe004 	addi	r2,r2,-128
  803734:	10000526 	beq	r2,zero,80374c <logic+0x257c>
    d->_taken_transitions[5] += 1;
  803738:	e0bffc17 	ldw	r2,-16(fp)
  80373c:	10801717 	ldw	r2,92(r2)
  803740:	10c00044 	addi	r3,r2,1
  803744:	e0bffc17 	ldw	r2,-16(fp)
  803748:	10c01715 	stw	r3,92(r2)
  }
  d->_g52 = d->_GO || d->_g86 || d->_g67 || d->_g10_e1;
  80374c:	e0bffc17 	ldw	r2,-16(fp)
  803750:	10803183 	ldbu	r2,198(r2)
  803754:	10803fcc 	andi	r2,r2,255
  803758:	1080201c 	xori	r2,r2,128
  80375c:	10bfe004 	addi	r2,r2,-128
  803760:	1000121e 	bne	r2,zero,8037ac <logic+0x25dc>
  803764:	e0bffc17 	ldw	r2,-16(fp)
  803768:	10802cc3 	ldbu	r2,179(r2)
  80376c:	10803fcc 	andi	r2,r2,255
  803770:	1080201c 	xori	r2,r2,128
  803774:	10bfe004 	addi	r2,r2,-128
  803778:	10000c1e 	bne	r2,zero,8037ac <logic+0x25dc>
  80377c:	e0bffc17 	ldw	r2,-16(fp)
  803780:	10802b03 	ldbu	r2,172(r2)
  803784:	10803fcc 	andi	r2,r2,255
  803788:	1080201c 	xori	r2,r2,128
  80378c:	10bfe004 	addi	r2,r2,-128
  803790:	1000061e 	bne	r2,zero,8037ac <logic+0x25dc>
  803794:	e0bffc17 	ldw	r2,-16(fp)
  803798:	10803d43 	ldbu	r2,245(r2)
  80379c:	10803fcc 	andi	r2,r2,255
  8037a0:	1080201c 	xori	r2,r2,128
  8037a4:	10bfe004 	addi	r2,r2,-128
  8037a8:	10000226 	beq	r2,zero,8037b4 <logic+0x25e4>
  8037ac:	00800044 	movi	r2,1
  8037b0:	00000106 	br	8037b8 <logic+0x25e8>
  8037b4:	0005883a 	mov	r2,zero
  8037b8:	1007883a 	mov	r3,r2
  8037bc:	e0bffc17 	ldw	r2,-16(fp)
  8037c0:	10c02845 	stb	r3,161(r2)
  if (d->_g52) {
  8037c4:	e0bffc17 	ldw	r2,-16(fp)
  8037c8:	10802843 	ldbu	r2,161(r2)
  8037cc:	10803fcc 	andi	r2,r2,255
  8037d0:	1080201c 	xori	r2,r2,128
  8037d4:	10bfe004 	addi	r2,r2,-128
  8037d8:	10000926 	beq	r2,zero,803800 <logic+0x2630>
    d->AVI_Clock = 0;
  8037dc:	e0bffc17 	ldw	r2,-16(fp)
  8037e0:	10001015 	stw	zero,64(r2)
  8037e4:	10001115 	stw	zero,68(r2)
    d->_Pacemaker_local__Atrig3 = 0;
  8037e8:	e0bffc17 	ldw	r2,-16(fp)
  8037ec:	10001ec5 	stb	zero,123(r2)
    d->_Pacemaker_local__Atrig4 = 0;
  8037f0:	e0bffc17 	ldw	r2,-16(fp)
  8037f4:	10001f05 	stb	zero,124(r2)
    d->_Pacemaker_local__Atrig5 = 0;
  8037f8:	e0bffc17 	ldw	r2,-16(fp)
  8037fc:	10001f45 	stb	zero,125(r2)
  }
  d->_cg4 = d->VRP_Clock < d->VRP;
  803800:	e0bffc17 	ldw	r2,-16(fp)
  803804:	14000617 	ldw	r16,24(r2)
  803808:	14400717 	ldw	r17,28(r2)
  80380c:	e0bffc17 	ldw	r2,-16(fp)
  803810:	10800317 	ldw	r2,12(r2)
  803814:	1009883a 	mov	r4,r2
  803818:	08068dc0 	call	8068dc <__floatsidf>
  80381c:	1009883a 	mov	r4,r2
  803820:	180b883a 	mov	r5,r3
  803824:	04800044 	movi	r18,1
  803828:	200d883a 	mov	r6,r4
  80382c:	280f883a 	mov	r7,r5
  803830:	8009883a 	mov	r4,r16
  803834:	880b883a 	mov	r5,r17
  803838:	0805eec0 	call	805eec <__ledf2>
  80383c:	10000116 	blt	r2,zero,803844 <logic+0x2674>
  803840:	0025883a 	mov	r18,zero
  803844:	9007883a 	mov	r3,r18
  803848:	e0bffc17 	ldw	r2,-16(fp)
  80384c:	10c031c5 	stb	r3,199(r2)
  d->_g21 = d->_g52 && d->_cg4;
  803850:	e0bffc17 	ldw	r2,-16(fp)
  803854:	10802843 	ldbu	r2,161(r2)
  803858:	10803fcc 	andi	r2,r2,255
  80385c:	1080201c 	xori	r2,r2,128
  803860:	10bfe004 	addi	r2,r2,-128
  803864:	10000826 	beq	r2,zero,803888 <logic+0x26b8>
  803868:	e0bffc17 	ldw	r2,-16(fp)
  80386c:	108031c3 	ldbu	r2,199(r2)
  803870:	10803fcc 	andi	r2,r2,255
  803874:	1080201c 	xori	r2,r2,128
  803878:	10bfe004 	addi	r2,r2,-128
  80387c:	10000226 	beq	r2,zero,803888 <logic+0x26b8>
  803880:	00800044 	movi	r2,1
  803884:	00000106 	br	80388c <logic+0x26bc>
  803888:	0005883a 	mov	r2,zero
  80388c:	1007883a 	mov	r3,r2
  803890:	e0bffc17 	ldw	r2,-16(fp)
  803894:	10c022c5 	stb	r3,139(r2)
  if (d->_g21) {
  803898:	e0bffc17 	ldw	r2,-16(fp)
  80389c:	108022c3 	ldbu	r2,139(r2)
  8038a0:	10803fcc 	andi	r2,r2,255
  8038a4:	1080201c 	xori	r2,r2,128
  8038a8:	10bfe004 	addi	r2,r2,-128
  8038ac:	10003426 	beq	r2,zero,803980 <logic+0x27b0>
    d->sleepT = (d->sleepT < (d->VRP - d->VRP_Clock)) ? d->sleepT : (d->VRP - d->VRP_Clock);
  8038b0:	e0bffc17 	ldw	r2,-16(fp)
  8038b4:	14001b17 	ldw	r16,108(r2)
  8038b8:	14401c17 	ldw	r17,112(r2)
  8038bc:	e0bffc17 	ldw	r2,-16(fp)
  8038c0:	10800317 	ldw	r2,12(r2)
  8038c4:	1009883a 	mov	r4,r2
  8038c8:	08068dc0 	call	8068dc <__floatsidf>
  8038cc:	1011883a 	mov	r8,r2
  8038d0:	1813883a 	mov	r9,r3
  8038d4:	e13ffc17 	ldw	r4,-16(fp)
  8038d8:	20800617 	ldw	r2,24(r4)
  8038dc:	20c00717 	ldw	r3,28(r4)
  8038e0:	100d883a 	mov	r6,r2
  8038e4:	180f883a 	mov	r7,r3
  8038e8:	4009883a 	mov	r4,r8
  8038ec:	480b883a 	mov	r5,r9
  8038f0:	0805fe00 	call	805fe0 <__subdf3>
  8038f4:	1009883a 	mov	r4,r2
  8038f8:	180b883a 	mov	r5,r3
  8038fc:	2005883a 	mov	r2,r4
  803900:	2807883a 	mov	r3,r5
  803904:	100d883a 	mov	r6,r2
  803908:	180f883a 	mov	r7,r3
  80390c:	8009883a 	mov	r4,r16
  803910:	880b883a 	mov	r5,r17
  803914:	0805eec0 	call	805eec <__ledf2>
  803918:	1000040e 	bge	r2,zero,80392c <logic+0x275c>
  80391c:	e13ffc17 	ldw	r4,-16(fp)
  803920:	20801b17 	ldw	r2,108(r4)
  803924:	20c01c17 	ldw	r3,112(r4)
  803928:	00001206 	br	803974 <logic+0x27a4>
  80392c:	e0bffc17 	ldw	r2,-16(fp)
  803930:	10800317 	ldw	r2,12(r2)
  803934:	1009883a 	mov	r4,r2
  803938:	08068dc0 	call	8068dc <__floatsidf>
  80393c:	1011883a 	mov	r8,r2
  803940:	1813883a 	mov	r9,r3
  803944:	e13ffc17 	ldw	r4,-16(fp)
  803948:	20800617 	ldw	r2,24(r4)
  80394c:	20c00717 	ldw	r3,28(r4)
  803950:	100d883a 	mov	r6,r2
  803954:	180f883a 	mov	r7,r3
  803958:	4009883a 	mov	r4,r8
  80395c:	480b883a 	mov	r5,r9
  803960:	0805fe00 	call	805fe0 <__subdf3>
  803964:	1009883a 	mov	r4,r2
  803968:	180b883a 	mov	r5,r3
  80396c:	2005883a 	mov	r2,r4
  803970:	2807883a 	mov	r3,r5
  803974:	e13ffc17 	ldw	r4,-16(fp)
  803978:	20801b15 	stw	r2,108(r4)
  80397c:	20c01c15 	stw	r3,112(r4)
  }
  d->_cg5 = d->_Pacemaker_local__Atrig3 || d->_Pacemaker_local__Atrig4 || d->_Pacemaker_local__Atrig5;
  803980:	e0bffc17 	ldw	r2,-16(fp)
  803984:	10801ec3 	ldbu	r2,123(r2)
  803988:	10803fcc 	andi	r2,r2,255
  80398c:	1080201c 	xori	r2,r2,128
  803990:	10bfe004 	addi	r2,r2,-128
  803994:	10000c1e 	bne	r2,zero,8039c8 <logic+0x27f8>
  803998:	e0bffc17 	ldw	r2,-16(fp)
  80399c:	10801f03 	ldbu	r2,124(r2)
  8039a0:	10803fcc 	andi	r2,r2,255
  8039a4:	1080201c 	xori	r2,r2,128
  8039a8:	10bfe004 	addi	r2,r2,-128
  8039ac:	1000061e 	bne	r2,zero,8039c8 <logic+0x27f8>
  8039b0:	e0bffc17 	ldw	r2,-16(fp)
  8039b4:	10801f43 	ldbu	r2,125(r2)
  8039b8:	10803fcc 	andi	r2,r2,255
  8039bc:	1080201c 	xori	r2,r2,128
  8039c0:	10bfe004 	addi	r2,r2,-128
  8039c4:	10000226 	beq	r2,zero,8039d0 <logic+0x2800>
  8039c8:	00800044 	movi	r2,1
  8039cc:	00000106 	br	8039d4 <logic+0x2804>
  8039d0:	0005883a 	mov	r2,zero
  8039d4:	1007883a 	mov	r3,r2
  8039d8:	e0bffc17 	ldw	r2,-16(fp)
  8039dc:	10c03205 	stb	r3,200(r2)
  d->_g10 = d->_g21 && !d->_cg5 || d->_g7 && !d->_cg9;
  8039e0:	e0bffc17 	ldw	r2,-16(fp)
  8039e4:	108022c3 	ldbu	r2,139(r2)
  8039e8:	10803fcc 	andi	r2,r2,255
  8039ec:	1080201c 	xori	r2,r2,128
  8039f0:	10bfe004 	addi	r2,r2,-128
  8039f4:	10000626 	beq	r2,zero,803a10 <logic+0x2840>
  8039f8:	e0bffc17 	ldw	r2,-16(fp)
  8039fc:	10803203 	ldbu	r2,200(r2)
  803a00:	10803fcc 	andi	r2,r2,255
  803a04:	1080201c 	xori	r2,r2,128
  803a08:	10bfe004 	addi	r2,r2,-128
  803a0c:	10000c26 	beq	r2,zero,803a40 <logic+0x2870>
  803a10:	e0bffc17 	ldw	r2,-16(fp)
  803a14:	10802003 	ldbu	r2,128(r2)
  803a18:	10803fcc 	andi	r2,r2,255
  803a1c:	1080201c 	xori	r2,r2,128
  803a20:	10bfe004 	addi	r2,r2,-128
  803a24:	10000826 	beq	r2,zero,803a48 <logic+0x2878>
  803a28:	e0bffc17 	ldw	r2,-16(fp)
  803a2c:	10803243 	ldbu	r2,201(r2)
  803a30:	10803fcc 	andi	r2,r2,255
  803a34:	1080201c 	xori	r2,r2,128
  803a38:	10bfe004 	addi	r2,r2,-128
  803a3c:	1000021e 	bne	r2,zero,803a48 <logic+0x2878>
  803a40:	00800044 	movi	r2,1
  803a44:	00000106 	br	803a4c <logic+0x287c>
  803a48:	0005883a 	mov	r2,zero
  803a4c:	1007883a 	mov	r3,r2
  803a50:	e0bffc17 	ldw	r2,-16(fp)
  803a54:	10c020c5 	stb	r3,131(r2)
  d->_g43 = d->_g52 && !d->_cg4;
  803a58:	e0bffc17 	ldw	r2,-16(fp)
  803a5c:	10802843 	ldbu	r2,161(r2)
  803a60:	10803fcc 	andi	r2,r2,255
  803a64:	1080201c 	xori	r2,r2,128
  803a68:	10bfe004 	addi	r2,r2,-128
  803a6c:	10000826 	beq	r2,zero,803a90 <logic+0x28c0>
  803a70:	e0bffc17 	ldw	r2,-16(fp)
  803a74:	108031c3 	ldbu	r2,199(r2)
  803a78:	10803fcc 	andi	r2,r2,255
  803a7c:	1080201c 	xori	r2,r2,128
  803a80:	10bfe004 	addi	r2,r2,-128
  803a84:	1000021e 	bne	r2,zero,803a90 <logic+0x28c0>
  803a88:	00800044 	movi	r2,1
  803a8c:	00000106 	br	803a94 <logic+0x28c4>
  803a90:	0005883a 	mov	r2,zero
  803a94:	1007883a 	mov	r3,r2
  803a98:	e0bffc17 	ldw	r2,-16(fp)
  803a9c:	10c026c5 	stb	r3,155(r2)
  d->_cg14 = d->_Pacemaker_local__Atrig3 || d->_Pacemaker_local__Atrig4 || d->_Pacemaker_local__Atrig5;
  803aa0:	e0bffc17 	ldw	r2,-16(fp)
  803aa4:	10801ec3 	ldbu	r2,123(r2)
  803aa8:	10803fcc 	andi	r2,r2,255
  803aac:	1080201c 	xori	r2,r2,128
  803ab0:	10bfe004 	addi	r2,r2,-128
  803ab4:	10000c1e 	bne	r2,zero,803ae8 <logic+0x2918>
  803ab8:	e0bffc17 	ldw	r2,-16(fp)
  803abc:	10801f03 	ldbu	r2,124(r2)
  803ac0:	10803fcc 	andi	r2,r2,255
  803ac4:	1080201c 	xori	r2,r2,128
  803ac8:	10bfe004 	addi	r2,r2,-128
  803acc:	1000061e 	bne	r2,zero,803ae8 <logic+0x2918>
  803ad0:	e0bffc17 	ldw	r2,-16(fp)
  803ad4:	10801f43 	ldbu	r2,125(r2)
  803ad8:	10803fcc 	andi	r2,r2,255
  803adc:	1080201c 	xori	r2,r2,128
  803ae0:	10bfe004 	addi	r2,r2,-128
  803ae4:	10000226 	beq	r2,zero,803af0 <logic+0x2920>
  803ae8:	00800044 	movi	r2,1
  803aec:	00000106 	br	803af4 <logic+0x2924>
  803af0:	0005883a 	mov	r2,zero
  803af4:	1007883a 	mov	r3,r2
  803af8:	e0bffc17 	ldw	r2,-16(fp)
  803afc:	10c03305 	stb	r3,204(r2)
  d->_g32 = d->_g8 && !d->_cg11 || d->_g43 && !d->_cg14;
  803b00:	e0bffc17 	ldw	r2,-16(fp)
  803b04:	10802043 	ldbu	r2,129(r2)
  803b08:	10803fcc 	andi	r2,r2,255
  803b0c:	1080201c 	xori	r2,r2,128
  803b10:	10bfe004 	addi	r2,r2,-128
  803b14:	10000626 	beq	r2,zero,803b30 <logic+0x2960>
  803b18:	e0bffc17 	ldw	r2,-16(fp)
  803b1c:	108032c3 	ldbu	r2,203(r2)
  803b20:	10803fcc 	andi	r2,r2,255
  803b24:	1080201c 	xori	r2,r2,128
  803b28:	10bfe004 	addi	r2,r2,-128
  803b2c:	10000c26 	beq	r2,zero,803b60 <logic+0x2990>
  803b30:	e0bffc17 	ldw	r2,-16(fp)
  803b34:	108026c3 	ldbu	r2,155(r2)
  803b38:	10803fcc 	andi	r2,r2,255
  803b3c:	1080201c 	xori	r2,r2,128
  803b40:	10bfe004 	addi	r2,r2,-128
  803b44:	10000826 	beq	r2,zero,803b68 <logic+0x2998>
  803b48:	e0bffc17 	ldw	r2,-16(fp)
  803b4c:	10803303 	ldbu	r2,204(r2)
  803b50:	10803fcc 	andi	r2,r2,255
  803b54:	1080201c 	xori	r2,r2,128
  803b58:	10bfe004 	addi	r2,r2,-128
  803b5c:	1000021e 	bne	r2,zero,803b68 <logic+0x2998>
  803b60:	00800044 	movi	r2,1
  803b64:	00000106 	br	803b6c <logic+0x299c>
  803b68:	0005883a 	mov	r2,zero
  803b6c:	1007883a 	mov	r3,r2
  803b70:	e0bffc17 	ldw	r2,-16(fp)
  803b74:	10c024c5 	stb	r3,147(r2)
  d->_cg15 = d->LRI_Clock < d->LRI;
  803b78:	e0bffc17 	ldw	r2,-16(fp)
  803b7c:	14000a17 	ldw	r16,40(r2)
  803b80:	14400b17 	ldw	r17,44(r2)
  803b84:	e0bffc17 	ldw	r2,-16(fp)
  803b88:	10800417 	ldw	r2,16(r2)
  803b8c:	1009883a 	mov	r4,r2
  803b90:	08068dc0 	call	8068dc <__floatsidf>
  803b94:	1009883a 	mov	r4,r2
  803b98:	180b883a 	mov	r5,r3
  803b9c:	04800044 	movi	r18,1
  803ba0:	200d883a 	mov	r6,r4
  803ba4:	280f883a 	mov	r7,r5
  803ba8:	8009883a 	mov	r4,r16
  803bac:	880b883a 	mov	r5,r17
  803bb0:	0805eec0 	call	805eec <__ledf2>
  803bb4:	10000116 	blt	r2,zero,803bbc <logic+0x29ec>
  803bb8:	0025883a 	mov	r18,zero
  803bbc:	9007883a 	mov	r3,r18
  803bc0:	e0bffc17 	ldw	r2,-16(fp)
  803bc4:	10c03345 	stb	r3,205(r2)
  d->_g52_e5 = d->_g52 && d->_cg15;
  803bc8:	e0bffc17 	ldw	r2,-16(fp)
  803bcc:	10802843 	ldbu	r2,161(r2)
  803bd0:	10803fcc 	andi	r2,r2,255
  803bd4:	1080201c 	xori	r2,r2,128
  803bd8:	10bfe004 	addi	r2,r2,-128
  803bdc:	10000826 	beq	r2,zero,803c00 <logic+0x2a30>
  803be0:	e0bffc17 	ldw	r2,-16(fp)
  803be4:	10803343 	ldbu	r2,205(r2)
  803be8:	10803fcc 	andi	r2,r2,255
  803bec:	1080201c 	xori	r2,r2,128
  803bf0:	10bfe004 	addi	r2,r2,-128
  803bf4:	10000226 	beq	r2,zero,803c00 <logic+0x2a30>
  803bf8:	00800044 	movi	r2,1
  803bfc:	00000106 	br	803c04 <logic+0x2a34>
  803c00:	0005883a 	mov	r2,zero
  803c04:	1007883a 	mov	r3,r2
  803c08:	e0bffc17 	ldw	r2,-16(fp)
  803c0c:	10c03e45 	stb	r3,249(r2)
  if (d->_g52_e5) {
  803c10:	e0bffc17 	ldw	r2,-16(fp)
  803c14:	10803e43 	ldbu	r2,249(r2)
  803c18:	10803fcc 	andi	r2,r2,255
  803c1c:	1080201c 	xori	r2,r2,128
  803c20:	10bfe004 	addi	r2,r2,-128
  803c24:	10003426 	beq	r2,zero,803cf8 <logic+0x2b28>
    d->sleepT = (d->sleepT < (d->LRI - d->LRI_Clock)) ? d->sleepT : (d->LRI - d->LRI_Clock);
  803c28:	e0bffc17 	ldw	r2,-16(fp)
  803c2c:	14001b17 	ldw	r16,108(r2)
  803c30:	14401c17 	ldw	r17,112(r2)
  803c34:	e0bffc17 	ldw	r2,-16(fp)
  803c38:	10800417 	ldw	r2,16(r2)
  803c3c:	1009883a 	mov	r4,r2
  803c40:	08068dc0 	call	8068dc <__floatsidf>
  803c44:	1011883a 	mov	r8,r2
  803c48:	1813883a 	mov	r9,r3
  803c4c:	e13ffc17 	ldw	r4,-16(fp)
  803c50:	20800a17 	ldw	r2,40(r4)
  803c54:	20c00b17 	ldw	r3,44(r4)
  803c58:	100d883a 	mov	r6,r2
  803c5c:	180f883a 	mov	r7,r3
  803c60:	4009883a 	mov	r4,r8
  803c64:	480b883a 	mov	r5,r9
  803c68:	0805fe00 	call	805fe0 <__subdf3>
  803c6c:	1009883a 	mov	r4,r2
  803c70:	180b883a 	mov	r5,r3
  803c74:	2005883a 	mov	r2,r4
  803c78:	2807883a 	mov	r3,r5
  803c7c:	100d883a 	mov	r6,r2
  803c80:	180f883a 	mov	r7,r3
  803c84:	8009883a 	mov	r4,r16
  803c88:	880b883a 	mov	r5,r17
  803c8c:	0805eec0 	call	805eec <__ledf2>
  803c90:	1000040e 	bge	r2,zero,803ca4 <logic+0x2ad4>
  803c94:	e13ffc17 	ldw	r4,-16(fp)
  803c98:	20801b17 	ldw	r2,108(r4)
  803c9c:	20c01c17 	ldw	r3,112(r4)
  803ca0:	00001206 	br	803cec <logic+0x2b1c>
  803ca4:	e0bffc17 	ldw	r2,-16(fp)
  803ca8:	10800417 	ldw	r2,16(r2)
  803cac:	1009883a 	mov	r4,r2
  803cb0:	08068dc0 	call	8068dc <__floatsidf>
  803cb4:	1011883a 	mov	r8,r2
  803cb8:	1813883a 	mov	r9,r3
  803cbc:	e13ffc17 	ldw	r4,-16(fp)
  803cc0:	20800a17 	ldw	r2,40(r4)
  803cc4:	20c00b17 	ldw	r3,44(r4)
  803cc8:	100d883a 	mov	r6,r2
  803ccc:	180f883a 	mov	r7,r3
  803cd0:	4009883a 	mov	r4,r8
  803cd4:	480b883a 	mov	r5,r9
  803cd8:	0805fe00 	call	805fe0 <__subdf3>
  803cdc:	1009883a 	mov	r4,r2
  803ce0:	180b883a 	mov	r5,r3
  803ce4:	2005883a 	mov	r2,r4
  803ce8:	2807883a 	mov	r3,r5
  803cec:	e13ffc17 	ldw	r4,-16(fp)
  803cf0:	20801b15 	stw	r2,108(r4)
  803cf4:	20c01c15 	stw	r3,112(r4)
  }
  d->_cg16 = d->_Pacemaker_local__Atrig3 || d->_Pacemaker_local__Atrig4 || d->_Pacemaker_local__Atrig5;
  803cf8:	e0bffc17 	ldw	r2,-16(fp)
  803cfc:	10801ec3 	ldbu	r2,123(r2)
  803d00:	10803fcc 	andi	r2,r2,255
  803d04:	1080201c 	xori	r2,r2,128
  803d08:	10bfe004 	addi	r2,r2,-128
  803d0c:	10000c1e 	bne	r2,zero,803d40 <logic+0x2b70>
  803d10:	e0bffc17 	ldw	r2,-16(fp)
  803d14:	10801f03 	ldbu	r2,124(r2)
  803d18:	10803fcc 	andi	r2,r2,255
  803d1c:	1080201c 	xori	r2,r2,128
  803d20:	10bfe004 	addi	r2,r2,-128
  803d24:	1000061e 	bne	r2,zero,803d40 <logic+0x2b70>
  803d28:	e0bffc17 	ldw	r2,-16(fp)
  803d2c:	10801f43 	ldbu	r2,125(r2)
  803d30:	10803fcc 	andi	r2,r2,255
  803d34:	1080201c 	xori	r2,r2,128
  803d38:	10bfe004 	addi	r2,r2,-128
  803d3c:	10000226 	beq	r2,zero,803d48 <logic+0x2b78>
  803d40:	00800044 	movi	r2,1
  803d44:	00000106 	br	803d4c <logic+0x2b7c>
  803d48:	0005883a 	mov	r2,zero
  803d4c:	1007883a 	mov	r3,r2
  803d50:	e0bffc17 	ldw	r2,-16(fp)
  803d54:	10c03385 	stb	r3,206(r2)
  d->_g21_e2 = d->_g52_e5 && !d->_cg16 || d->_g18 && !d->_cg20;
  803d58:	e0bffc17 	ldw	r2,-16(fp)
  803d5c:	10803e43 	ldbu	r2,249(r2)
  803d60:	10803fcc 	andi	r2,r2,255
  803d64:	1080201c 	xori	r2,r2,128
  803d68:	10bfe004 	addi	r2,r2,-128
  803d6c:	10000626 	beq	r2,zero,803d88 <logic+0x2bb8>
  803d70:	e0bffc17 	ldw	r2,-16(fp)
  803d74:	10803383 	ldbu	r2,206(r2)
  803d78:	10803fcc 	andi	r2,r2,255
  803d7c:	1080201c 	xori	r2,r2,128
  803d80:	10bfe004 	addi	r2,r2,-128
  803d84:	10000c26 	beq	r2,zero,803db8 <logic+0x2be8>
  803d88:	e0bffc17 	ldw	r2,-16(fp)
  803d8c:	10802203 	ldbu	r2,136(r2)
  803d90:	10803fcc 	andi	r2,r2,255
  803d94:	1080201c 	xori	r2,r2,128
  803d98:	10bfe004 	addi	r2,r2,-128
  803d9c:	10000826 	beq	r2,zero,803dc0 <logic+0x2bf0>
  803da0:	e0bffc17 	ldw	r2,-16(fp)
  803da4:	108033c3 	ldbu	r2,207(r2)
  803da8:	10803fcc 	andi	r2,r2,255
  803dac:	1080201c 	xori	r2,r2,128
  803db0:	10bfe004 	addi	r2,r2,-128
  803db4:	1000021e 	bne	r2,zero,803dc0 <logic+0x2bf0>
  803db8:	00800044 	movi	r2,1
  803dbc:	00000106 	br	803dc4 <logic+0x2bf4>
  803dc0:	0005883a 	mov	r2,zero
  803dc4:	1007883a 	mov	r3,r2
  803dc8:	e0bffc17 	ldw	r2,-16(fp)
  803dcc:	10c03d85 	stb	r3,246(r2)
  d->_g43_e4 = d->_g52 && !d->_cg15;
  803dd0:	e0bffc17 	ldw	r2,-16(fp)
  803dd4:	10802843 	ldbu	r2,161(r2)
  803dd8:	10803fcc 	andi	r2,r2,255
  803ddc:	1080201c 	xori	r2,r2,128
  803de0:	10bfe004 	addi	r2,r2,-128
  803de4:	10000826 	beq	r2,zero,803e08 <logic+0x2c38>
  803de8:	e0bffc17 	ldw	r2,-16(fp)
  803dec:	10803343 	ldbu	r2,205(r2)
  803df0:	10803fcc 	andi	r2,r2,255
  803df4:	1080201c 	xori	r2,r2,128
  803df8:	10bfe004 	addi	r2,r2,-128
  803dfc:	1000021e 	bne	r2,zero,803e08 <logic+0x2c38>
  803e00:	00800044 	movi	r2,1
  803e04:	00000106 	br	803e0c <logic+0x2c3c>
  803e08:	0005883a 	mov	r2,zero
  803e0c:	1007883a 	mov	r3,r2
  803e10:	e0bffc17 	ldw	r2,-16(fp)
  803e14:	10c03e05 	stb	r3,248(r2)
  d->_cg25 = d->_Pacemaker_local__Atrig3 || d->_Pacemaker_local__Atrig4 || d->_Pacemaker_local__Atrig5;
  803e18:	e0bffc17 	ldw	r2,-16(fp)
  803e1c:	10801ec3 	ldbu	r2,123(r2)
  803e20:	10803fcc 	andi	r2,r2,255
  803e24:	1080201c 	xori	r2,r2,128
  803e28:	10bfe004 	addi	r2,r2,-128
  803e2c:	10000c1e 	bne	r2,zero,803e60 <logic+0x2c90>
  803e30:	e0bffc17 	ldw	r2,-16(fp)
  803e34:	10801f03 	ldbu	r2,124(r2)
  803e38:	10803fcc 	andi	r2,r2,255
  803e3c:	1080201c 	xori	r2,r2,128
  803e40:	10bfe004 	addi	r2,r2,-128
  803e44:	1000061e 	bne	r2,zero,803e60 <logic+0x2c90>
  803e48:	e0bffc17 	ldw	r2,-16(fp)
  803e4c:	10801f43 	ldbu	r2,125(r2)
  803e50:	10803fcc 	andi	r2,r2,255
  803e54:	1080201c 	xori	r2,r2,128
  803e58:	10bfe004 	addi	r2,r2,-128
  803e5c:	10000226 	beq	r2,zero,803e68 <logic+0x2c98>
  803e60:	00800044 	movi	r2,1
  803e64:	00000106 	br	803e6c <logic+0x2c9c>
  803e68:	0005883a 	mov	r2,zero
  803e6c:	1007883a 	mov	r3,r2
  803e70:	e0bffc17 	ldw	r2,-16(fp)
  803e74:	10c03485 	stb	r3,210(r2)
  d->_g32_e3 = d->_g19 && !d->_cg22 || d->_g43_e4 && !d->_cg25;
  803e78:	e0bffc17 	ldw	r2,-16(fp)
  803e7c:	10802243 	ldbu	r2,137(r2)
  803e80:	10803fcc 	andi	r2,r2,255
  803e84:	1080201c 	xori	r2,r2,128
  803e88:	10bfe004 	addi	r2,r2,-128
  803e8c:	10000626 	beq	r2,zero,803ea8 <logic+0x2cd8>
  803e90:	e0bffc17 	ldw	r2,-16(fp)
  803e94:	10803443 	ldbu	r2,209(r2)
  803e98:	10803fcc 	andi	r2,r2,255
  803e9c:	1080201c 	xori	r2,r2,128
  803ea0:	10bfe004 	addi	r2,r2,-128
  803ea4:	10000c26 	beq	r2,zero,803ed8 <logic+0x2d08>
  803ea8:	e0bffc17 	ldw	r2,-16(fp)
  803eac:	10803e03 	ldbu	r2,248(r2)
  803eb0:	10803fcc 	andi	r2,r2,255
  803eb4:	1080201c 	xori	r2,r2,128
  803eb8:	10bfe004 	addi	r2,r2,-128
  803ebc:	10000826 	beq	r2,zero,803ee0 <logic+0x2d10>
  803ec0:	e0bffc17 	ldw	r2,-16(fp)
  803ec4:	10803483 	ldbu	r2,210(r2)
  803ec8:	10803fcc 	andi	r2,r2,255
  803ecc:	1080201c 	xori	r2,r2,128
  803ed0:	10bfe004 	addi	r2,r2,-128
  803ed4:	1000021e 	bne	r2,zero,803ee0 <logic+0x2d10>
  803ed8:	00800044 	movi	r2,1
  803edc:	00000106 	br	803ee4 <logic+0x2d14>
  803ee0:	0005883a 	mov	r2,zero
  803ee4:	1007883a 	mov	r3,r2
  803ee8:	e0bffc17 	ldw	r2,-16(fp)
  803eec:	10c03dc5 	stb	r3,247(r2)
  d->_cg26 = d->URI_Clock < d->URI;
  803ef0:	e0bffc17 	ldw	r2,-16(fp)
  803ef4:	14000c17 	ldw	r16,48(r2)
  803ef8:	14400d17 	ldw	r17,52(r2)
  803efc:	e0bffc17 	ldw	r2,-16(fp)
  803f00:	10800517 	ldw	r2,20(r2)
  803f04:	1009883a 	mov	r4,r2
  803f08:	08068dc0 	call	8068dc <__floatsidf>
  803f0c:	1009883a 	mov	r4,r2
  803f10:	180b883a 	mov	r5,r3
  803f14:	04800044 	movi	r18,1
  803f18:	200d883a 	mov	r6,r4
  803f1c:	280f883a 	mov	r7,r5
  803f20:	8009883a 	mov	r4,r16
  803f24:	880b883a 	mov	r5,r17
  803f28:	0805eec0 	call	805eec <__ledf2>
  803f2c:	10000116 	blt	r2,zero,803f34 <logic+0x2d64>
  803f30:	0025883a 	mov	r18,zero
  803f34:	9007883a 	mov	r3,r18
  803f38:	e0bffc17 	ldw	r2,-16(fp)
  803f3c:	10c034c5 	stb	r3,211(r2)
  d->_g95 = d->_g52 && d->_cg26;
  803f40:	e0bffc17 	ldw	r2,-16(fp)
  803f44:	10802843 	ldbu	r2,161(r2)
  803f48:	10803fcc 	andi	r2,r2,255
  803f4c:	1080201c 	xori	r2,r2,128
  803f50:	10bfe004 	addi	r2,r2,-128
  803f54:	10000826 	beq	r2,zero,803f78 <logic+0x2da8>
  803f58:	e0bffc17 	ldw	r2,-16(fp)
  803f5c:	108034c3 	ldbu	r2,211(r2)
  803f60:	10803fcc 	andi	r2,r2,255
  803f64:	1080201c 	xori	r2,r2,128
  803f68:	10bfe004 	addi	r2,r2,-128
  803f6c:	10000226 	beq	r2,zero,803f78 <logic+0x2da8>
  803f70:	00800044 	movi	r2,1
  803f74:	00000106 	br	803f7c <logic+0x2dac>
  803f78:	0005883a 	mov	r2,zero
  803f7c:	1007883a 	mov	r3,r2
  803f80:	e0bffc17 	ldw	r2,-16(fp)
  803f84:	10c02ec5 	stb	r3,187(r2)
  if (d->_g95) {
  803f88:	e0bffc17 	ldw	r2,-16(fp)
  803f8c:	10802ec3 	ldbu	r2,187(r2)
  803f90:	10803fcc 	andi	r2,r2,255
  803f94:	1080201c 	xori	r2,r2,128
  803f98:	10bfe004 	addi	r2,r2,-128
  803f9c:	10003426 	beq	r2,zero,804070 <logic+0x2ea0>
    d->sleepT = (d->sleepT < (d->URI - d->URI_Clock)) ? d->sleepT : (d->URI - d->URI_Clock);
  803fa0:	e0bffc17 	ldw	r2,-16(fp)
  803fa4:	14001b17 	ldw	r16,108(r2)
  803fa8:	14401c17 	ldw	r17,112(r2)
  803fac:	e0bffc17 	ldw	r2,-16(fp)
  803fb0:	10800517 	ldw	r2,20(r2)
  803fb4:	1009883a 	mov	r4,r2
  803fb8:	08068dc0 	call	8068dc <__floatsidf>
  803fbc:	1011883a 	mov	r8,r2
  803fc0:	1813883a 	mov	r9,r3
  803fc4:	e13ffc17 	ldw	r4,-16(fp)
  803fc8:	20800c17 	ldw	r2,48(r4)
  803fcc:	20c00d17 	ldw	r3,52(r4)
  803fd0:	100d883a 	mov	r6,r2
  803fd4:	180f883a 	mov	r7,r3
  803fd8:	4009883a 	mov	r4,r8
  803fdc:	480b883a 	mov	r5,r9
  803fe0:	0805fe00 	call	805fe0 <__subdf3>
  803fe4:	1009883a 	mov	r4,r2
  803fe8:	180b883a 	mov	r5,r3
  803fec:	2005883a 	mov	r2,r4
  803ff0:	2807883a 	mov	r3,r5
  803ff4:	100d883a 	mov	r6,r2
  803ff8:	180f883a 	mov	r7,r3
  803ffc:	8009883a 	mov	r4,r16
  804000:	880b883a 	mov	r5,r17
  804004:	0805eec0 	call	805eec <__ledf2>
  804008:	1000040e 	bge	r2,zero,80401c <logic+0x2e4c>
  80400c:	e13ffc17 	ldw	r4,-16(fp)
  804010:	20801b17 	ldw	r2,108(r4)
  804014:	20c01c17 	ldw	r3,112(r4)
  804018:	00001206 	br	804064 <logic+0x2e94>
  80401c:	e0bffc17 	ldw	r2,-16(fp)
  804020:	10800517 	ldw	r2,20(r2)
  804024:	1009883a 	mov	r4,r2
  804028:	08068dc0 	call	8068dc <__floatsidf>
  80402c:	1011883a 	mov	r8,r2
  804030:	1813883a 	mov	r9,r3
  804034:	e13ffc17 	ldw	r4,-16(fp)
  804038:	20800c17 	ldw	r2,48(r4)
  80403c:	20c00d17 	ldw	r3,52(r4)
  804040:	100d883a 	mov	r6,r2
  804044:	180f883a 	mov	r7,r3
  804048:	4009883a 	mov	r4,r8
  80404c:	480b883a 	mov	r5,r9
  804050:	0805fe00 	call	805fe0 <__subdf3>
  804054:	1009883a 	mov	r4,r2
  804058:	180b883a 	mov	r5,r3
  80405c:	2005883a 	mov	r2,r4
  804060:	2807883a 	mov	r3,r5
  804064:	e13ffc17 	ldw	r4,-16(fp)
  804068:	20801b15 	stw	r2,108(r4)
  80406c:	20c01c15 	stw	r3,112(r4)
  }
  d->_cg27 = d->_Pacemaker_local__Atrig3 || d->_Pacemaker_local__Atrig4 || d->_Pacemaker_local__Atrig5;
  804070:	e0bffc17 	ldw	r2,-16(fp)
  804074:	10801ec3 	ldbu	r2,123(r2)
  804078:	10803fcc 	andi	r2,r2,255
  80407c:	1080201c 	xori	r2,r2,128
  804080:	10bfe004 	addi	r2,r2,-128
  804084:	10000c1e 	bne	r2,zero,8040b8 <logic+0x2ee8>
  804088:	e0bffc17 	ldw	r2,-16(fp)
  80408c:	10801f03 	ldbu	r2,124(r2)
  804090:	10803fcc 	andi	r2,r2,255
  804094:	1080201c 	xori	r2,r2,128
  804098:	10bfe004 	addi	r2,r2,-128
  80409c:	1000061e 	bne	r2,zero,8040b8 <logic+0x2ee8>
  8040a0:	e0bffc17 	ldw	r2,-16(fp)
  8040a4:	10801f43 	ldbu	r2,125(r2)
  8040a8:	10803fcc 	andi	r2,r2,255
  8040ac:	1080201c 	xori	r2,r2,128
  8040b0:	10bfe004 	addi	r2,r2,-128
  8040b4:	10000226 	beq	r2,zero,8040c0 <logic+0x2ef0>
  8040b8:	00800044 	movi	r2,1
  8040bc:	00000106 	br	8040c4 <logic+0x2ef4>
  8040c0:	0005883a 	mov	r2,zero
  8040c4:	1007883a 	mov	r3,r2
  8040c8:	e0bffc17 	ldw	r2,-16(fp)
  8040cc:	10c03505 	stb	r3,212(r2)
  d->_g93 = d->_g95 && !d->_cg27 || d->_g29 && !d->_cg31;
  8040d0:	e0bffc17 	ldw	r2,-16(fp)
  8040d4:	10802ec3 	ldbu	r2,187(r2)
  8040d8:	10803fcc 	andi	r2,r2,255
  8040dc:	1080201c 	xori	r2,r2,128
  8040e0:	10bfe004 	addi	r2,r2,-128
  8040e4:	10000626 	beq	r2,zero,804100 <logic+0x2f30>
  8040e8:	e0bffc17 	ldw	r2,-16(fp)
  8040ec:	10803503 	ldbu	r2,212(r2)
  8040f0:	10803fcc 	andi	r2,r2,255
  8040f4:	1080201c 	xori	r2,r2,128
  8040f8:	10bfe004 	addi	r2,r2,-128
  8040fc:	10000c26 	beq	r2,zero,804130 <logic+0x2f60>
  804100:	e0bffc17 	ldw	r2,-16(fp)
  804104:	10802403 	ldbu	r2,144(r2)
  804108:	10803fcc 	andi	r2,r2,255
  80410c:	1080201c 	xori	r2,r2,128
  804110:	10bfe004 	addi	r2,r2,-128
  804114:	10000826 	beq	r2,zero,804138 <logic+0x2f68>
  804118:	e0bffc17 	ldw	r2,-16(fp)
  80411c:	10803543 	ldbu	r2,213(r2)
  804120:	10803fcc 	andi	r2,r2,255
  804124:	1080201c 	xori	r2,r2,128
  804128:	10bfe004 	addi	r2,r2,-128
  80412c:	1000021e 	bne	r2,zero,804138 <logic+0x2f68>
  804130:	00800044 	movi	r2,1
  804134:	00000106 	br	80413c <logic+0x2f6c>
  804138:	0005883a 	mov	r2,zero
  80413c:	1007883a 	mov	r3,r2
  804140:	e0bffc17 	ldw	r2,-16(fp)
  804144:	10c02e45 	stb	r3,185(r2)
  d->_g98 = d->_g52 && !d->_cg26;
  804148:	e0bffc17 	ldw	r2,-16(fp)
  80414c:	10802843 	ldbu	r2,161(r2)
  804150:	10803fcc 	andi	r2,r2,255
  804154:	1080201c 	xori	r2,r2,128
  804158:	10bfe004 	addi	r2,r2,-128
  80415c:	10000826 	beq	r2,zero,804180 <logic+0x2fb0>
  804160:	e0bffc17 	ldw	r2,-16(fp)
  804164:	108034c3 	ldbu	r2,211(r2)
  804168:	10803fcc 	andi	r2,r2,255
  80416c:	1080201c 	xori	r2,r2,128
  804170:	10bfe004 	addi	r2,r2,-128
  804174:	1000021e 	bne	r2,zero,804180 <logic+0x2fb0>
  804178:	00800044 	movi	r2,1
  80417c:	00000106 	br	804184 <logic+0x2fb4>
  804180:	0005883a 	mov	r2,zero
  804184:	1007883a 	mov	r3,r2
  804188:	e0bffc17 	ldw	r2,-16(fp)
  80418c:	10c02f85 	stb	r3,190(r2)
  d->_cg36 = d->_Pacemaker_local__Atrig3 || d->_Pacemaker_local__Atrig4 || d->_Pacemaker_local__Atrig5;
  804190:	e0bffc17 	ldw	r2,-16(fp)
  804194:	10801ec3 	ldbu	r2,123(r2)
  804198:	10803fcc 	andi	r2,r2,255
  80419c:	1080201c 	xori	r2,r2,128
  8041a0:	10bfe004 	addi	r2,r2,-128
  8041a4:	10000c1e 	bne	r2,zero,8041d8 <logic+0x3008>
  8041a8:	e0bffc17 	ldw	r2,-16(fp)
  8041ac:	10801f03 	ldbu	r2,124(r2)
  8041b0:	10803fcc 	andi	r2,r2,255
  8041b4:	1080201c 	xori	r2,r2,128
  8041b8:	10bfe004 	addi	r2,r2,-128
  8041bc:	1000061e 	bne	r2,zero,8041d8 <logic+0x3008>
  8041c0:	e0bffc17 	ldw	r2,-16(fp)
  8041c4:	10801f43 	ldbu	r2,125(r2)
  8041c8:	10803fcc 	andi	r2,r2,255
  8041cc:	1080201c 	xori	r2,r2,128
  8041d0:	10bfe004 	addi	r2,r2,-128
  8041d4:	10000226 	beq	r2,zero,8041e0 <logic+0x3010>
  8041d8:	00800044 	movi	r2,1
  8041dc:	00000106 	br	8041e4 <logic+0x3014>
  8041e0:	0005883a 	mov	r2,zero
  8041e4:	1007883a 	mov	r3,r2
  8041e8:	e0bffc17 	ldw	r2,-16(fp)
  8041ec:	10c03605 	stb	r3,216(r2)
  d->_g5 = d->_g30 && !d->_cg33 || d->_g98 && !d->_cg36;
  8041f0:	e0bffc17 	ldw	r2,-16(fp)
  8041f4:	10802443 	ldbu	r2,145(r2)
  8041f8:	10803fcc 	andi	r2,r2,255
  8041fc:	1080201c 	xori	r2,r2,128
  804200:	10bfe004 	addi	r2,r2,-128
  804204:	10000626 	beq	r2,zero,804220 <logic+0x3050>
  804208:	e0bffc17 	ldw	r2,-16(fp)
  80420c:	108035c3 	ldbu	r2,215(r2)
  804210:	10803fcc 	andi	r2,r2,255
  804214:	1080201c 	xori	r2,r2,128
  804218:	10bfe004 	addi	r2,r2,-128
  80421c:	10000c26 	beq	r2,zero,804250 <logic+0x3080>
  804220:	e0bffc17 	ldw	r2,-16(fp)
  804224:	10802f83 	ldbu	r2,190(r2)
  804228:	10803fcc 	andi	r2,r2,255
  80422c:	1080201c 	xori	r2,r2,128
  804230:	10bfe004 	addi	r2,r2,-128
  804234:	10000826 	beq	r2,zero,804258 <logic+0x3088>
  804238:	e0bffc17 	ldw	r2,-16(fp)
  80423c:	10803603 	ldbu	r2,216(r2)
  804240:	10803fcc 	andi	r2,r2,255
  804244:	1080201c 	xori	r2,r2,128
  804248:	10bfe004 	addi	r2,r2,-128
  80424c:	1000021e 	bne	r2,zero,804258 <logic+0x3088>
  804250:	00800044 	movi	r2,1
  804254:	00000106 	br	80425c <logic+0x308c>
  804258:	0005883a 	mov	r2,zero
  80425c:	1007883a 	mov	r3,r2
  804260:	e0bffc17 	ldw	r2,-16(fp)
  804264:	10c01fc5 	stb	r3,127(r2)
  d->_cg37 = d->AVI_Clock < d->AVI;
  804268:	e0bffc17 	ldw	r2,-16(fp)
  80426c:	14001017 	ldw	r16,64(r2)
  804270:	14401117 	ldw	r17,68(r2)
  804274:	e0bffc17 	ldw	r2,-16(fp)
  804278:	10800017 	ldw	r2,0(r2)
  80427c:	1009883a 	mov	r4,r2
  804280:	08068dc0 	call	8068dc <__floatsidf>
  804284:	1009883a 	mov	r4,r2
  804288:	180b883a 	mov	r5,r3
  80428c:	04800044 	movi	r18,1
  804290:	200d883a 	mov	r6,r4
  804294:	280f883a 	mov	r7,r5
  804298:	8009883a 	mov	r4,r16
  80429c:	880b883a 	mov	r5,r17
  8042a0:	0805eec0 	call	805eec <__ledf2>
  8042a4:	10000116 	blt	r2,zero,8042ac <logic+0x30dc>
  8042a8:	0025883a 	mov	r18,zero
  8042ac:	9007883a 	mov	r3,r18
  8042b0:	e0bffc17 	ldw	r2,-16(fp)
  8042b4:	10c03645 	stb	r3,217(r2)
  d->_g9 = d->_g52 && d->_cg37;
  8042b8:	e0bffc17 	ldw	r2,-16(fp)
  8042bc:	10802843 	ldbu	r2,161(r2)
  8042c0:	10803fcc 	andi	r2,r2,255
  8042c4:	1080201c 	xori	r2,r2,128
  8042c8:	10bfe004 	addi	r2,r2,-128
  8042cc:	10000826 	beq	r2,zero,8042f0 <logic+0x3120>
  8042d0:	e0bffc17 	ldw	r2,-16(fp)
  8042d4:	10803643 	ldbu	r2,217(r2)
  8042d8:	10803fcc 	andi	r2,r2,255
  8042dc:	1080201c 	xori	r2,r2,128
  8042e0:	10bfe004 	addi	r2,r2,-128
  8042e4:	10000226 	beq	r2,zero,8042f0 <logic+0x3120>
  8042e8:	00800044 	movi	r2,1
  8042ec:	00000106 	br	8042f4 <logic+0x3124>
  8042f0:	0005883a 	mov	r2,zero
  8042f4:	1007883a 	mov	r3,r2
  8042f8:	e0bffc17 	ldw	r2,-16(fp)
  8042fc:	10c02085 	stb	r3,130(r2)
  if (d->_g9) {
  804300:	e0bffc17 	ldw	r2,-16(fp)
  804304:	10802083 	ldbu	r2,130(r2)
  804308:	10803fcc 	andi	r2,r2,255
  80430c:	1080201c 	xori	r2,r2,128
  804310:	10bfe004 	addi	r2,r2,-128
  804314:	10003426 	beq	r2,zero,8043e8 <logic+0x3218>
    d->sleepT = (d->sleepT < (d->AVI - d->AVI_Clock)) ? d->sleepT : (d->AVI - d->AVI_Clock);
  804318:	e0bffc17 	ldw	r2,-16(fp)
  80431c:	14001b17 	ldw	r16,108(r2)
  804320:	14401c17 	ldw	r17,112(r2)
  804324:	e0bffc17 	ldw	r2,-16(fp)
  804328:	10800017 	ldw	r2,0(r2)
  80432c:	1009883a 	mov	r4,r2
  804330:	08068dc0 	call	8068dc <__floatsidf>
  804334:	1011883a 	mov	r8,r2
  804338:	1813883a 	mov	r9,r3
  80433c:	e13ffc17 	ldw	r4,-16(fp)
  804340:	20801017 	ldw	r2,64(r4)
  804344:	20c01117 	ldw	r3,68(r4)
  804348:	100d883a 	mov	r6,r2
  80434c:	180f883a 	mov	r7,r3
  804350:	4009883a 	mov	r4,r8
  804354:	480b883a 	mov	r5,r9
  804358:	0805fe00 	call	805fe0 <__subdf3>
  80435c:	1009883a 	mov	r4,r2
  804360:	180b883a 	mov	r5,r3
  804364:	2005883a 	mov	r2,r4
  804368:	2807883a 	mov	r3,r5
  80436c:	100d883a 	mov	r6,r2
  804370:	180f883a 	mov	r7,r3
  804374:	8009883a 	mov	r4,r16
  804378:	880b883a 	mov	r5,r17
  80437c:	0805eec0 	call	805eec <__ledf2>
  804380:	1000040e 	bge	r2,zero,804394 <logic+0x31c4>
  804384:	e13ffc17 	ldw	r4,-16(fp)
  804388:	20801b17 	ldw	r2,108(r4)
  80438c:	20c01c17 	ldw	r3,112(r4)
  804390:	00001206 	br	8043dc <logic+0x320c>
  804394:	e0bffc17 	ldw	r2,-16(fp)
  804398:	10800017 	ldw	r2,0(r2)
  80439c:	1009883a 	mov	r4,r2
  8043a0:	08068dc0 	call	8068dc <__floatsidf>
  8043a4:	1011883a 	mov	r8,r2
  8043a8:	1813883a 	mov	r9,r3
  8043ac:	e13ffc17 	ldw	r4,-16(fp)
  8043b0:	20801017 	ldw	r2,64(r4)
  8043b4:	20c01117 	ldw	r3,68(r4)
  8043b8:	100d883a 	mov	r6,r2
  8043bc:	180f883a 	mov	r7,r3
  8043c0:	4009883a 	mov	r4,r8
  8043c4:	480b883a 	mov	r5,r9
  8043c8:	0805fe00 	call	805fe0 <__subdf3>
  8043cc:	1009883a 	mov	r4,r2
  8043d0:	180b883a 	mov	r5,r3
  8043d4:	2005883a 	mov	r2,r4
  8043d8:	2807883a 	mov	r3,r5
  8043dc:	e13ffc17 	ldw	r4,-16(fp)
  8043e0:	20801b15 	stw	r2,108(r4)
  8043e4:	20c01c15 	stw	r3,112(r4)
  }
  d->_cg38 = d->_Pacemaker_local__Atrig3 || d->_Pacemaker_local__Atrig4 || d->_Pacemaker_local__Atrig5;
  8043e8:	e0bffc17 	ldw	r2,-16(fp)
  8043ec:	10801ec3 	ldbu	r2,123(r2)
  8043f0:	10803fcc 	andi	r2,r2,255
  8043f4:	1080201c 	xori	r2,r2,128
  8043f8:	10bfe004 	addi	r2,r2,-128
  8043fc:	10000c1e 	bne	r2,zero,804430 <logic+0x3260>
  804400:	e0bffc17 	ldw	r2,-16(fp)
  804404:	10801f03 	ldbu	r2,124(r2)
  804408:	10803fcc 	andi	r2,r2,255
  80440c:	1080201c 	xori	r2,r2,128
  804410:	10bfe004 	addi	r2,r2,-128
  804414:	1000061e 	bne	r2,zero,804430 <logic+0x3260>
  804418:	e0bffc17 	ldw	r2,-16(fp)
  80441c:	10801f43 	ldbu	r2,125(r2)
  804420:	10803fcc 	andi	r2,r2,255
  804424:	1080201c 	xori	r2,r2,128
  804428:	10bfe004 	addi	r2,r2,-128
  80442c:	10000226 	beq	r2,zero,804438 <logic+0x3268>
  804430:	00800044 	movi	r2,1
  804434:	00000106 	br	80443c <logic+0x326c>
  804438:	0005883a 	mov	r2,zero
  80443c:	1007883a 	mov	r3,r2
  804440:	e0bffc17 	ldw	r2,-16(fp)
  804444:	10c03685 	stb	r3,218(r2)
  d->_g11 = d->_g9 && !d->_cg38 || d->_g46 && !d->_cg42;
  804448:	e0bffc17 	ldw	r2,-16(fp)
  80444c:	10802083 	ldbu	r2,130(r2)
  804450:	10803fcc 	andi	r2,r2,255
  804454:	1080201c 	xori	r2,r2,128
  804458:	10bfe004 	addi	r2,r2,-128
  80445c:	10000626 	beq	r2,zero,804478 <logic+0x32a8>
  804460:	e0bffc17 	ldw	r2,-16(fp)
  804464:	10803683 	ldbu	r2,218(r2)
  804468:	10803fcc 	andi	r2,r2,255
  80446c:	1080201c 	xori	r2,r2,128
  804470:	10bfe004 	addi	r2,r2,-128
  804474:	10000c26 	beq	r2,zero,8044a8 <logic+0x32d8>
  804478:	e0bffc17 	ldw	r2,-16(fp)
  80447c:	10802743 	ldbu	r2,157(r2)
  804480:	10803fcc 	andi	r2,r2,255
  804484:	1080201c 	xori	r2,r2,128
  804488:	10bfe004 	addi	r2,r2,-128
  80448c:	10000826 	beq	r2,zero,8044b0 <logic+0x32e0>
  804490:	e0bffc17 	ldw	r2,-16(fp)
  804494:	108036c3 	ldbu	r2,219(r2)
  804498:	10803fcc 	andi	r2,r2,255
  80449c:	1080201c 	xori	r2,r2,128
  8044a0:	10bfe004 	addi	r2,r2,-128
  8044a4:	1000021e 	bne	r2,zero,8044b0 <logic+0x32e0>
  8044a8:	00800044 	movi	r2,1
  8044ac:	00000106 	br	8044b4 <logic+0x32e4>
  8044b0:	0005883a 	mov	r2,zero
  8044b4:	1007883a 	mov	r3,r2
  8044b8:	e0bffc17 	ldw	r2,-16(fp)
  8044bc:	10c02105 	stb	r3,132(r2)
  d->_g14 = d->_g52 && !d->_cg37;
  8044c0:	e0bffc17 	ldw	r2,-16(fp)
  8044c4:	10802843 	ldbu	r2,161(r2)
  8044c8:	10803fcc 	andi	r2,r2,255
  8044cc:	1080201c 	xori	r2,r2,128
  8044d0:	10bfe004 	addi	r2,r2,-128
  8044d4:	10000826 	beq	r2,zero,8044f8 <logic+0x3328>
  8044d8:	e0bffc17 	ldw	r2,-16(fp)
  8044dc:	10803643 	ldbu	r2,217(r2)
  8044e0:	10803fcc 	andi	r2,r2,255
  8044e4:	1080201c 	xori	r2,r2,128
  8044e8:	10bfe004 	addi	r2,r2,-128
  8044ec:	1000021e 	bne	r2,zero,8044f8 <logic+0x3328>
  8044f0:	00800044 	movi	r2,1
  8044f4:	00000106 	br	8044fc <logic+0x332c>
  8044f8:	0005883a 	mov	r2,zero
  8044fc:	1007883a 	mov	r3,r2
  804500:	e0bffc17 	ldw	r2,-16(fp)
  804504:	10c02185 	stb	r3,134(r2)
  d->_cg47 = d->_Pacemaker_local__Atrig3 || d->_Pacemaker_local__Atrig4 || d->_Pacemaker_local__Atrig5;
  804508:	e0bffc17 	ldw	r2,-16(fp)
  80450c:	10801ec3 	ldbu	r2,123(r2)
  804510:	10803fcc 	andi	r2,r2,255
  804514:	1080201c 	xori	r2,r2,128
  804518:	10bfe004 	addi	r2,r2,-128
  80451c:	10000c1e 	bne	r2,zero,804550 <logic+0x3380>
  804520:	e0bffc17 	ldw	r2,-16(fp)
  804524:	10801f03 	ldbu	r2,124(r2)
  804528:	10803fcc 	andi	r2,r2,255
  80452c:	1080201c 	xori	r2,r2,128
  804530:	10bfe004 	addi	r2,r2,-128
  804534:	1000061e 	bne	r2,zero,804550 <logic+0x3380>
  804538:	e0bffc17 	ldw	r2,-16(fp)
  80453c:	10801f43 	ldbu	r2,125(r2)
  804540:	10803fcc 	andi	r2,r2,255
  804544:	1080201c 	xori	r2,r2,128
  804548:	10bfe004 	addi	r2,r2,-128
  80454c:	10000226 	beq	r2,zero,804558 <logic+0x3388>
  804550:	00800044 	movi	r2,1
  804554:	00000106 	br	80455c <logic+0x338c>
  804558:	0005883a 	mov	r2,zero
  80455c:	1007883a 	mov	r3,r2
  804560:	e0bffc17 	ldw	r2,-16(fp)
  804564:	10c03785 	stb	r3,222(r2)
  d->_g16 = d->_g41 && !d->_cg44 || d->_g14 && !d->_cg47;
  804568:	e0bffc17 	ldw	r2,-16(fp)
  80456c:	10802643 	ldbu	r2,153(r2)
  804570:	10803fcc 	andi	r2,r2,255
  804574:	1080201c 	xori	r2,r2,128
  804578:	10bfe004 	addi	r2,r2,-128
  80457c:	10000626 	beq	r2,zero,804598 <logic+0x33c8>
  804580:	e0bffc17 	ldw	r2,-16(fp)
  804584:	10803743 	ldbu	r2,221(r2)
  804588:	10803fcc 	andi	r2,r2,255
  80458c:	1080201c 	xori	r2,r2,128
  804590:	10bfe004 	addi	r2,r2,-128
  804594:	10000c26 	beq	r2,zero,8045c8 <logic+0x33f8>
  804598:	e0bffc17 	ldw	r2,-16(fp)
  80459c:	10802183 	ldbu	r2,134(r2)
  8045a0:	10803fcc 	andi	r2,r2,255
  8045a4:	1080201c 	xori	r2,r2,128
  8045a8:	10bfe004 	addi	r2,r2,-128
  8045ac:	10000826 	beq	r2,zero,8045d0 <logic+0x3400>
  8045b0:	e0bffc17 	ldw	r2,-16(fp)
  8045b4:	10803783 	ldbu	r2,222(r2)
  8045b8:	10803fcc 	andi	r2,r2,255
  8045bc:	1080201c 	xori	r2,r2,128
  8045c0:	10bfe004 	addi	r2,r2,-128
  8045c4:	1000021e 	bne	r2,zero,8045d0 <logic+0x3400>
  8045c8:	00800044 	movi	r2,1
  8045cc:	00000106 	br	8045d4 <logic+0x3404>
  8045d0:	0005883a 	mov	r2,zero
  8045d4:	1007883a 	mov	r3,r2
  8045d8:	e0bffc17 	ldw	r2,-16(fp)
  8045dc:	10c021c5 	stb	r3,135(r2)
  d->_g20 = d->_g52 || d->_g53 && !d->_cg55;
  8045e0:	e0bffc17 	ldw	r2,-16(fp)
  8045e4:	10802843 	ldbu	r2,161(r2)
  8045e8:	10803fcc 	andi	r2,r2,255
  8045ec:	1080201c 	xori	r2,r2,128
  8045f0:	10bfe004 	addi	r2,r2,-128
  8045f4:	10000c1e 	bne	r2,zero,804628 <logic+0x3458>
  8045f8:	e0bffc17 	ldw	r2,-16(fp)
  8045fc:	10802883 	ldbu	r2,162(r2)
  804600:	10803fcc 	andi	r2,r2,255
  804604:	1080201c 	xori	r2,r2,128
  804608:	10bfe004 	addi	r2,r2,-128
  80460c:	10000826 	beq	r2,zero,804630 <logic+0x3460>
  804610:	e0bffc17 	ldw	r2,-16(fp)
  804614:	108037c3 	ldbu	r2,223(r2)
  804618:	10803fcc 	andi	r2,r2,255
  80461c:	1080201c 	xori	r2,r2,128
  804620:	10bfe004 	addi	r2,r2,-128
  804624:	1000021e 	bne	r2,zero,804630 <logic+0x3460>
  804628:	00800044 	movi	r2,1
  80462c:	00000106 	br	804634 <logic+0x3464>
  804630:	0005883a 	mov	r2,zero
  804634:	1007883a 	mov	r3,r2
  804638:	e0bffc17 	ldw	r2,-16(fp)
  80463c:	10c02285 	stb	r3,138(r2)
  d->_g22 = d->_g56 && d->_cg57;
  804640:	e0bffc17 	ldw	r2,-16(fp)
  804644:	10802943 	ldbu	r2,165(r2)
  804648:	10803fcc 	andi	r2,r2,255
  80464c:	1080201c 	xori	r2,r2,128
  804650:	10bfe004 	addi	r2,r2,-128
  804654:	10000826 	beq	r2,zero,804678 <logic+0x34a8>
  804658:	e0bffc17 	ldw	r2,-16(fp)
  80465c:	10803883 	ldbu	r2,226(r2)
  804660:	10803fcc 	andi	r2,r2,255
  804664:	1080201c 	xori	r2,r2,128
  804668:	10bfe004 	addi	r2,r2,-128
  80466c:	10000226 	beq	r2,zero,804678 <logic+0x34a8>
  804670:	00800044 	movi	r2,1
  804674:	00000106 	br	80467c <logic+0x34ac>
  804678:	0005883a 	mov	r2,zero
  80467c:	1007883a 	mov	r3,r2
  804680:	e0bffc17 	ldw	r2,-16(fp)
  804684:	10c02305 	stb	r3,140(r2)
  if (d->_g22) {
  804688:	e0bffc17 	ldw	r2,-16(fp)
  80468c:	10802303 	ldbu	r2,140(r2)
  804690:	10803fcc 	andi	r2,r2,255
  804694:	1080201c 	xori	r2,r2,128
  804698:	10bfe004 	addi	r2,r2,-128
  80469c:	10000b26 	beq	r2,zero,8046cc <logic+0x34fc>
    d->VP |= 1;
  8046a0:	e0bffc17 	ldw	r2,-16(fp)
  8046a4:	10801dc3 	ldbu	r2,119(r2)
  8046a8:	10800054 	ori	r2,r2,1
  8046ac:	1007883a 	mov	r3,r2
  8046b0:	e0bffc17 	ldw	r2,-16(fp)
  8046b4:	10c01dc5 	stb	r3,119(r2)
    d->_taken_transitions[4] += 1;
  8046b8:	e0bffc17 	ldw	r2,-16(fp)
  8046bc:	10801617 	ldw	r2,88(r2)
  8046c0:	10c00044 	addi	r3,r2,1
  8046c4:	e0bffc17 	ldw	r2,-16(fp)
  8046c8:	10c01615 	stw	r3,88(r2)
  }
  d->_g25 = d->_g54 && !d->_cg97;
  8046cc:	e0bffc17 	ldw	r2,-16(fp)
  8046d0:	108028c3 	ldbu	r2,163(r2)
  8046d4:	10803fcc 	andi	r2,r2,255
  8046d8:	1080201c 	xori	r2,r2,128
  8046dc:	10bfe004 	addi	r2,r2,-128
  8046e0:	10000826 	beq	r2,zero,804704 <logic+0x3534>
  8046e4:	e0bffc17 	ldw	r2,-16(fp)
  8046e8:	10803d03 	ldbu	r2,244(r2)
  8046ec:	10803fcc 	andi	r2,r2,255
  8046f0:	1080201c 	xori	r2,r2,128
  8046f4:	10bfe004 	addi	r2,r2,-128
  8046f8:	1000021e 	bne	r2,zero,804704 <logic+0x3534>
  8046fc:	00800044 	movi	r2,1
  804700:	00000106 	br	804708 <logic+0x3538>
  804704:	0005883a 	mov	r2,zero
  804708:	1007883a 	mov	r3,r2
  80470c:	e0bffc17 	ldw	r2,-16(fp)
  804710:	10c02385 	stb	r3,142(r2)
  if (d->_g25) {
  804714:	e0bffc17 	ldw	r2,-16(fp)
  804718:	10802383 	ldbu	r2,142(r2)
  80471c:	10803fcc 	andi	r2,r2,255
  804720:	1080201c 	xori	r2,r2,128
  804724:	10bfe004 	addi	r2,r2,-128
  804728:	10000b26 	beq	r2,zero,804758 <logic+0x3588>
    d->VP |= 1;
  80472c:	e0bffc17 	ldw	r2,-16(fp)
  804730:	10801dc3 	ldbu	r2,119(r2)
  804734:	10800054 	ori	r2,r2,1
  804738:	1007883a 	mov	r3,r2
  80473c:	e0bffc17 	ldw	r2,-16(fp)
  804740:	10c01dc5 	stb	r3,119(r2)
    d->_taken_transitions[6] += 1;
  804744:	e0bffc17 	ldw	r2,-16(fp)
  804748:	10801817 	ldw	r2,96(r2)
  80474c:	10c00044 	addi	r3,r2,1
  804750:	e0bffc17 	ldw	r2,-16(fp)
  804754:	10c01815 	stw	r3,96(r2)
  }
  d->_g27 = d->_g22 || d->_g25;
  804758:	e0bffc17 	ldw	r2,-16(fp)
  80475c:	10802303 	ldbu	r2,140(r2)
  804760:	10803fcc 	andi	r2,r2,255
  804764:	1080201c 	xori	r2,r2,128
  804768:	10bfe004 	addi	r2,r2,-128
  80476c:	1000061e 	bne	r2,zero,804788 <logic+0x35b8>
  804770:	e0bffc17 	ldw	r2,-16(fp)
  804774:	10802383 	ldbu	r2,142(r2)
  804778:	10803fcc 	andi	r2,r2,255
  80477c:	1080201c 	xori	r2,r2,128
  804780:	10bfe004 	addi	r2,r2,-128
  804784:	10000226 	beq	r2,zero,804790 <logic+0x35c0>
  804788:	00800044 	movi	r2,1
  80478c:	00000106 	br	804794 <logic+0x35c4>
  804790:	0005883a 	mov	r2,zero
  804794:	1007883a 	mov	r3,r2
  804798:	e0bffc17 	ldw	r2,-16(fp)
  80479c:	10c023c5 	stb	r3,143(r2)
  if (d->_g27) {
  8047a0:	e0bffc17 	ldw	r2,-16(fp)
  8047a4:	108023c3 	ldbu	r2,143(r2)
  8047a8:	10803fcc 	andi	r2,r2,255
  8047ac:	1080201c 	xori	r2,r2,128
  8047b0:	10bfe004 	addi	r2,r2,-128
  8047b4:	10001426 	beq	r2,zero,804808 <logic+0x3638>
    d->PVARP_Clock = 0;
  8047b8:	e0bffc17 	ldw	r2,-16(fp)
  8047bc:	10000e15 	stw	zero,56(r2)
  8047c0:	10000f15 	stw	zero,60(r2)
    d->VRP_Clock = 0;
  8047c4:	e0bffc17 	ldw	r2,-16(fp)
  8047c8:	10000615 	stw	zero,24(r2)
  8047cc:	10000715 	stw	zero,28(r2)
    d->AEI_Clock = 0;
  8047d0:	e0bffc17 	ldw	r2,-16(fp)
  8047d4:	10000815 	stw	zero,32(r2)
  8047d8:	10000915 	stw	zero,36(r2)
    d->URI_Clock = 0;
  8047dc:	e0bffc17 	ldw	r2,-16(fp)
  8047e0:	10000c15 	stw	zero,48(r2)
  8047e4:	10000d15 	stw	zero,52(r2)
    d->LRI_Clock = 0;
  8047e8:	e0bffc17 	ldw	r2,-16(fp)
  8047ec:	10000a15 	stw	zero,40(r2)
  8047f0:	10000b15 	stw	zero,44(r2)
    d->_taken_transitions[3] += 1;
  8047f4:	e0bffc17 	ldw	r2,-16(fp)
  8047f8:	10801517 	ldw	r2,84(r2)
  8047fc:	10c00044 	addi	r3,r2,1
  804800:	e0bffc17 	ldw	r2,-16(fp)
  804804:	10c01515 	stw	r3,84(r2)
  }
  d->_g31 = d->_g87_e3 && !d->_cg94;
  804808:	e0bffc17 	ldw	r2,-16(fp)
  80480c:	10803f03 	ldbu	r2,252(r2)
  804810:	10803fcc 	andi	r2,r2,255
  804814:	1080201c 	xori	r2,r2,128
  804818:	10bfe004 	addi	r2,r2,-128
  80481c:	10000826 	beq	r2,zero,804840 <logic+0x3670>
  804820:	e0bffc17 	ldw	r2,-16(fp)
  804824:	10803cc3 	ldbu	r2,243(r2)
  804828:	10803fcc 	andi	r2,r2,255
  80482c:	1080201c 	xori	r2,r2,128
  804830:	10bfe004 	addi	r2,r2,-128
  804834:	1000021e 	bne	r2,zero,804840 <logic+0x3670>
  804838:	00800044 	movi	r2,1
  80483c:	00000106 	br	804844 <logic+0x3674>
  804840:	0005883a 	mov	r2,zero
  804844:	1007883a 	mov	r3,r2
  804848:	e0bffc17 	ldw	r2,-16(fp)
  80484c:	10c02485 	stb	r3,146(r2)
  if (d->_g31) {
  804850:	e0bffc17 	ldw	r2,-16(fp)
  804854:	10802483 	ldbu	r2,146(r2)
  804858:	10803fcc 	andi	r2,r2,255
  80485c:	1080201c 	xori	r2,r2,128
  804860:	10bfe004 	addi	r2,r2,-128
  804864:	10000526 	beq	r2,zero,80487c <logic+0x36ac>
    d->_taken_transitions[2] += 1;
  804868:	e0bffc17 	ldw	r2,-16(fp)
  80486c:	10801417 	ldw	r2,80(r2)
  804870:	10c00044 	addi	r3,r2,1
  804874:	e0bffc17 	ldw	r2,-16(fp)
  804878:	10c01415 	stw	r3,80(r2)
  }
  d->_g33 = d->_g27 || d->_g31;
  80487c:	e0bffc17 	ldw	r2,-16(fp)
  804880:	108023c3 	ldbu	r2,143(r2)
  804884:	10803fcc 	andi	r2,r2,255
  804888:	1080201c 	xori	r2,r2,128
  80488c:	10bfe004 	addi	r2,r2,-128
  804890:	1000061e 	bne	r2,zero,8048ac <logic+0x36dc>
  804894:	e0bffc17 	ldw	r2,-16(fp)
  804898:	10802483 	ldbu	r2,146(r2)
  80489c:	10803fcc 	andi	r2,r2,255
  8048a0:	1080201c 	xori	r2,r2,128
  8048a4:	10bfe004 	addi	r2,r2,-128
  8048a8:	10000226 	beq	r2,zero,8048b4 <logic+0x36e4>
  8048ac:	00800044 	movi	r2,1
  8048b0:	00000106 	br	8048b8 <logic+0x36e8>
  8048b4:	0005883a 	mov	r2,zero
  8048b8:	1007883a 	mov	r3,r2
  8048bc:	e0bffc17 	ldw	r2,-16(fp)
  8048c0:	10c02505 	stb	r3,148(r2)
  if (d->_g33) {
  8048c4:	e0bffc17 	ldw	r2,-16(fp)
  8048c8:	10802503 	ldbu	r2,148(r2)
  8048cc:	10803fcc 	andi	r2,r2,255
  8048d0:	1080201c 	xori	r2,r2,128
  8048d4:	10bfe004 	addi	r2,r2,-128
  8048d8:	10000626 	beq	r2,zero,8048f4 <logic+0x3724>
    d->_Pacemaker_local__Atrig = 0;
  8048dc:	e0bffc17 	ldw	r2,-16(fp)
  8048e0:	10001e05 	stb	zero,120(r2)
    d->_Pacemaker_local__Atrig1 = 0;
  8048e4:	e0bffc17 	ldw	r2,-16(fp)
  8048e8:	10001e45 	stb	zero,121(r2)
    d->_Pacemaker_local__Atrig2 = 0;
  8048ec:	e0bffc17 	ldw	r2,-16(fp)
  8048f0:	10001e85 	stb	zero,122(r2)
  }
  d->_cg61 = d->AEI_Clock < d->AEI;
  8048f4:	e0bffc17 	ldw	r2,-16(fp)
  8048f8:	14000817 	ldw	r16,32(r2)
  8048fc:	14400917 	ldw	r17,36(r2)
  804900:	e0bffc17 	ldw	r2,-16(fp)
  804904:	10800117 	ldw	r2,4(r2)
  804908:	1009883a 	mov	r4,r2
  80490c:	08068dc0 	call	8068dc <__floatsidf>
  804910:	1009883a 	mov	r4,r2
  804914:	180b883a 	mov	r5,r3
  804918:	04800044 	movi	r18,1
  80491c:	200d883a 	mov	r6,r4
  804920:	280f883a 	mov	r7,r5
  804924:	8009883a 	mov	r4,r16
  804928:	880b883a 	mov	r5,r17
  80492c:	0805eec0 	call	805eec <__ledf2>
  804930:	10000116 	blt	r2,zero,804938 <logic+0x3768>
  804934:	0025883a 	mov	r18,zero
  804938:	9007883a 	mov	r3,r18
  80493c:	e0bffc17 	ldw	r2,-16(fp)
  804940:	10c038c5 	stb	r3,227(r2)
  d->_g36 = d->_g33 && d->_cg61;
  804944:	e0bffc17 	ldw	r2,-16(fp)
  804948:	10802503 	ldbu	r2,148(r2)
  80494c:	10803fcc 	andi	r2,r2,255
  804950:	1080201c 	xori	r2,r2,128
  804954:	10bfe004 	addi	r2,r2,-128
  804958:	10000826 	beq	r2,zero,80497c <logic+0x37ac>
  80495c:	e0bffc17 	ldw	r2,-16(fp)
  804960:	108038c3 	ldbu	r2,227(r2)
  804964:	10803fcc 	andi	r2,r2,255
  804968:	1080201c 	xori	r2,r2,128
  80496c:	10bfe004 	addi	r2,r2,-128
  804970:	10000226 	beq	r2,zero,80497c <logic+0x37ac>
  804974:	00800044 	movi	r2,1
  804978:	00000106 	br	804980 <logic+0x37b0>
  80497c:	0005883a 	mov	r2,zero
  804980:	1007883a 	mov	r3,r2
  804984:	e0bffc17 	ldw	r2,-16(fp)
  804988:	10c02585 	stb	r3,150(r2)
  if (d->_g36) {
  80498c:	e0bffc17 	ldw	r2,-16(fp)
  804990:	10802583 	ldbu	r2,150(r2)
  804994:	10803fcc 	andi	r2,r2,255
  804998:	1080201c 	xori	r2,r2,128
  80499c:	10bfe004 	addi	r2,r2,-128
  8049a0:	10003426 	beq	r2,zero,804a74 <logic+0x38a4>
    d->sleepT = (d->sleepT < (d->AEI - d->AEI_Clock)) ? d->sleepT : (d->AEI - d->AEI_Clock);
  8049a4:	e0bffc17 	ldw	r2,-16(fp)
  8049a8:	14001b17 	ldw	r16,108(r2)
  8049ac:	14401c17 	ldw	r17,112(r2)
  8049b0:	e0bffc17 	ldw	r2,-16(fp)
  8049b4:	10800117 	ldw	r2,4(r2)
  8049b8:	1009883a 	mov	r4,r2
  8049bc:	08068dc0 	call	8068dc <__floatsidf>
  8049c0:	1011883a 	mov	r8,r2
  8049c4:	1813883a 	mov	r9,r3
  8049c8:	e13ffc17 	ldw	r4,-16(fp)
  8049cc:	20800817 	ldw	r2,32(r4)
  8049d0:	20c00917 	ldw	r3,36(r4)
  8049d4:	100d883a 	mov	r6,r2
  8049d8:	180f883a 	mov	r7,r3
  8049dc:	4009883a 	mov	r4,r8
  8049e0:	480b883a 	mov	r5,r9
  8049e4:	0805fe00 	call	805fe0 <__subdf3>
  8049e8:	1009883a 	mov	r4,r2
  8049ec:	180b883a 	mov	r5,r3
  8049f0:	2005883a 	mov	r2,r4
  8049f4:	2807883a 	mov	r3,r5
  8049f8:	100d883a 	mov	r6,r2
  8049fc:	180f883a 	mov	r7,r3
  804a00:	8009883a 	mov	r4,r16
  804a04:	880b883a 	mov	r5,r17
  804a08:	0805eec0 	call	805eec <__ledf2>
  804a0c:	1000040e 	bge	r2,zero,804a20 <logic+0x3850>
  804a10:	e13ffc17 	ldw	r4,-16(fp)
  804a14:	20801b17 	ldw	r2,108(r4)
  804a18:	20c01c17 	ldw	r3,112(r4)
  804a1c:	00001206 	br	804a68 <logic+0x3898>
  804a20:	e0bffc17 	ldw	r2,-16(fp)
  804a24:	10800117 	ldw	r2,4(r2)
  804a28:	1009883a 	mov	r4,r2
  804a2c:	08068dc0 	call	8068dc <__floatsidf>
  804a30:	1011883a 	mov	r8,r2
  804a34:	1813883a 	mov	r9,r3
  804a38:	e13ffc17 	ldw	r4,-16(fp)
  804a3c:	20800817 	ldw	r2,32(r4)
  804a40:	20c00917 	ldw	r3,36(r4)
  804a44:	100d883a 	mov	r6,r2
  804a48:	180f883a 	mov	r7,r3
  804a4c:	4009883a 	mov	r4,r8
  804a50:	480b883a 	mov	r5,r9
  804a54:	0805fe00 	call	805fe0 <__subdf3>
  804a58:	1009883a 	mov	r4,r2
  804a5c:	180b883a 	mov	r5,r3
  804a60:	2005883a 	mov	r2,r4
  804a64:	2807883a 	mov	r3,r5
  804a68:	e13ffc17 	ldw	r4,-16(fp)
  804a6c:	20801b15 	stw	r2,108(r4)
  804a70:	20c01c15 	stw	r3,112(r4)
  }
  d->_cg62 = d->_Pacemaker_local__Atrig || d->_Pacemaker_local__Atrig1 || d->_Pacemaker_local__Atrig2;
  804a74:	e0bffc17 	ldw	r2,-16(fp)
  804a78:	10801e03 	ldbu	r2,120(r2)
  804a7c:	10803fcc 	andi	r2,r2,255
  804a80:	1080201c 	xori	r2,r2,128
  804a84:	10bfe004 	addi	r2,r2,-128
  804a88:	10000c1e 	bne	r2,zero,804abc <logic+0x38ec>
  804a8c:	e0bffc17 	ldw	r2,-16(fp)
  804a90:	10801e43 	ldbu	r2,121(r2)
  804a94:	10803fcc 	andi	r2,r2,255
  804a98:	1080201c 	xori	r2,r2,128
  804a9c:	10bfe004 	addi	r2,r2,-128
  804aa0:	1000061e 	bne	r2,zero,804abc <logic+0x38ec>
  804aa4:	e0bffc17 	ldw	r2,-16(fp)
  804aa8:	10801e83 	ldbu	r2,122(r2)
  804aac:	10803fcc 	andi	r2,r2,255
  804ab0:	1080201c 	xori	r2,r2,128
  804ab4:	10bfe004 	addi	r2,r2,-128
  804ab8:	10000226 	beq	r2,zero,804ac4 <logic+0x38f4>
  804abc:	00800044 	movi	r2,1
  804ac0:	00000106 	br	804ac8 <logic+0x38f8>
  804ac4:	0005883a 	mov	r2,zero
  804ac8:	1007883a 	mov	r3,r2
  804acc:	e0bffc17 	ldw	r2,-16(fp)
  804ad0:	10c03905 	stb	r3,228(r2)
  d->_g38 = d->_g36 && !d->_cg62 || d->_g64 && !d->_cg66;
  804ad4:	e0bffc17 	ldw	r2,-16(fp)
  804ad8:	10802583 	ldbu	r2,150(r2)
  804adc:	10803fcc 	andi	r2,r2,255
  804ae0:	1080201c 	xori	r2,r2,128
  804ae4:	10bfe004 	addi	r2,r2,-128
  804ae8:	10000626 	beq	r2,zero,804b04 <logic+0x3934>
  804aec:	e0bffc17 	ldw	r2,-16(fp)
  804af0:	10803903 	ldbu	r2,228(r2)
  804af4:	10803fcc 	andi	r2,r2,255
  804af8:	1080201c 	xori	r2,r2,128
  804afc:	10bfe004 	addi	r2,r2,-128
  804b00:	10000c26 	beq	r2,zero,804b34 <logic+0x3964>
  804b04:	e0bffc17 	ldw	r2,-16(fp)
  804b08:	10802a43 	ldbu	r2,169(r2)
  804b0c:	10803fcc 	andi	r2,r2,255
  804b10:	1080201c 	xori	r2,r2,128
  804b14:	10bfe004 	addi	r2,r2,-128
  804b18:	10000826 	beq	r2,zero,804b3c <logic+0x396c>
  804b1c:	e0bffc17 	ldw	r2,-16(fp)
  804b20:	10803943 	ldbu	r2,229(r2)
  804b24:	10803fcc 	andi	r2,r2,255
  804b28:	1080201c 	xori	r2,r2,128
  804b2c:	10bfe004 	addi	r2,r2,-128
  804b30:	1000021e 	bne	r2,zero,804b3c <logic+0x396c>
  804b34:	00800044 	movi	r2,1
  804b38:	00000106 	br	804b40 <logic+0x3970>
  804b3c:	0005883a 	mov	r2,zero
  804b40:	1007883a 	mov	r3,r2
  804b44:	e0bffc17 	ldw	r2,-16(fp)
  804b48:	10c025c5 	stb	r3,151(r2)
  d->_g42 = d->_g33 && !d->_cg61;
  804b4c:	e0bffc17 	ldw	r2,-16(fp)
  804b50:	10802503 	ldbu	r2,148(r2)
  804b54:	10803fcc 	andi	r2,r2,255
  804b58:	1080201c 	xori	r2,r2,128
  804b5c:	10bfe004 	addi	r2,r2,-128
  804b60:	10000826 	beq	r2,zero,804b84 <logic+0x39b4>
  804b64:	e0bffc17 	ldw	r2,-16(fp)
  804b68:	108038c3 	ldbu	r2,227(r2)
  804b6c:	10803fcc 	andi	r2,r2,255
  804b70:	1080201c 	xori	r2,r2,128
  804b74:	10bfe004 	addi	r2,r2,-128
  804b78:	1000021e 	bne	r2,zero,804b84 <logic+0x39b4>
  804b7c:	00800044 	movi	r2,1
  804b80:	00000106 	br	804b88 <logic+0x39b8>
  804b84:	0005883a 	mov	r2,zero
  804b88:	1007883a 	mov	r3,r2
  804b8c:	e0bffc17 	ldw	r2,-16(fp)
  804b90:	10c02685 	stb	r3,154(r2)
  d->_cg71 = d->_Pacemaker_local__Atrig || d->_Pacemaker_local__Atrig1 || d->_Pacemaker_local__Atrig2;
  804b94:	e0bffc17 	ldw	r2,-16(fp)
  804b98:	10801e03 	ldbu	r2,120(r2)
  804b9c:	10803fcc 	andi	r2,r2,255
  804ba0:	1080201c 	xori	r2,r2,128
  804ba4:	10bfe004 	addi	r2,r2,-128
  804ba8:	10000c1e 	bne	r2,zero,804bdc <logic+0x3a0c>
  804bac:	e0bffc17 	ldw	r2,-16(fp)
  804bb0:	10801e43 	ldbu	r2,121(r2)
  804bb4:	10803fcc 	andi	r2,r2,255
  804bb8:	1080201c 	xori	r2,r2,128
  804bbc:	10bfe004 	addi	r2,r2,-128
  804bc0:	1000061e 	bne	r2,zero,804bdc <logic+0x3a0c>
  804bc4:	e0bffc17 	ldw	r2,-16(fp)
  804bc8:	10801e83 	ldbu	r2,122(r2)
  804bcc:	10803fcc 	andi	r2,r2,255
  804bd0:	1080201c 	xori	r2,r2,128
  804bd4:	10bfe004 	addi	r2,r2,-128
  804bd8:	10000226 	beq	r2,zero,804be4 <logic+0x3a14>
  804bdc:	00800044 	movi	r2,1
  804be0:	00000106 	br	804be8 <logic+0x3a18>
  804be4:	0005883a 	mov	r2,zero
  804be8:	1007883a 	mov	r3,r2
  804bec:	e0bffc17 	ldw	r2,-16(fp)
  804bf0:	10c03a05 	stb	r3,232(r2)
  d->_g44 = d->_g65 && !d->_cg68 || d->_g42 && !d->_cg71;
  804bf4:	e0bffc17 	ldw	r2,-16(fp)
  804bf8:	10802a83 	ldbu	r2,170(r2)
  804bfc:	10803fcc 	andi	r2,r2,255
  804c00:	1080201c 	xori	r2,r2,128
  804c04:	10bfe004 	addi	r2,r2,-128
  804c08:	10000626 	beq	r2,zero,804c24 <logic+0x3a54>
  804c0c:	e0bffc17 	ldw	r2,-16(fp)
  804c10:	108039c3 	ldbu	r2,231(r2)
  804c14:	10803fcc 	andi	r2,r2,255
  804c18:	1080201c 	xori	r2,r2,128
  804c1c:	10bfe004 	addi	r2,r2,-128
  804c20:	10000c26 	beq	r2,zero,804c54 <logic+0x3a84>
  804c24:	e0bffc17 	ldw	r2,-16(fp)
  804c28:	10802683 	ldbu	r2,154(r2)
  804c2c:	10803fcc 	andi	r2,r2,255
  804c30:	1080201c 	xori	r2,r2,128
  804c34:	10bfe004 	addi	r2,r2,-128
  804c38:	10000826 	beq	r2,zero,804c5c <logic+0x3a8c>
  804c3c:	e0bffc17 	ldw	r2,-16(fp)
  804c40:	10803a03 	ldbu	r2,232(r2)
  804c44:	10803fcc 	andi	r2,r2,255
  804c48:	1080201c 	xori	r2,r2,128
  804c4c:	10bfe004 	addi	r2,r2,-128
  804c50:	1000021e 	bne	r2,zero,804c5c <logic+0x3a8c>
  804c54:	00800044 	movi	r2,1
  804c58:	00000106 	br	804c60 <logic+0x3a90>
  804c5c:	0005883a 	mov	r2,zero
  804c60:	1007883a 	mov	r3,r2
  804c64:	e0bffc17 	ldw	r2,-16(fp)
  804c68:	10c02705 	stb	r3,156(r2)
  d->_cg72 = d->PVARP_Clock < d->PVARP;
  804c6c:	e0bffc17 	ldw	r2,-16(fp)
  804c70:	14000e17 	ldw	r16,56(r2)
  804c74:	14400f17 	ldw	r17,60(r2)
  804c78:	e0bffc17 	ldw	r2,-16(fp)
  804c7c:	10800217 	ldw	r2,8(r2)
  804c80:	1009883a 	mov	r4,r2
  804c84:	08068dc0 	call	8068dc <__floatsidf>
  804c88:	1009883a 	mov	r4,r2
  804c8c:	180b883a 	mov	r5,r3
  804c90:	04800044 	movi	r18,1
  804c94:	200d883a 	mov	r6,r4
  804c98:	280f883a 	mov	r7,r5
  804c9c:	8009883a 	mov	r4,r16
  804ca0:	880b883a 	mov	r5,r17
  804ca4:	0805eec0 	call	805eec <__ledf2>
  804ca8:	10000116 	blt	r2,zero,804cb0 <logic+0x3ae0>
  804cac:	0025883a 	mov	r18,zero
  804cb0:	9007883a 	mov	r3,r18
  804cb4:	e0bffc17 	ldw	r2,-16(fp)
  804cb8:	10c03a45 	stb	r3,233(r2)
  d->_g47 = d->_g33 && d->_cg72;
  804cbc:	e0bffc17 	ldw	r2,-16(fp)
  804cc0:	10802503 	ldbu	r2,148(r2)
  804cc4:	10803fcc 	andi	r2,r2,255
  804cc8:	1080201c 	xori	r2,r2,128
  804ccc:	10bfe004 	addi	r2,r2,-128
  804cd0:	10000826 	beq	r2,zero,804cf4 <logic+0x3b24>
  804cd4:	e0bffc17 	ldw	r2,-16(fp)
  804cd8:	10803a43 	ldbu	r2,233(r2)
  804cdc:	10803fcc 	andi	r2,r2,255
  804ce0:	1080201c 	xori	r2,r2,128
  804ce4:	10bfe004 	addi	r2,r2,-128
  804ce8:	10000226 	beq	r2,zero,804cf4 <logic+0x3b24>
  804cec:	00800044 	movi	r2,1
  804cf0:	00000106 	br	804cf8 <logic+0x3b28>
  804cf4:	0005883a 	mov	r2,zero
  804cf8:	1007883a 	mov	r3,r2
  804cfc:	e0bffc17 	ldw	r2,-16(fp)
  804d00:	10c02785 	stb	r3,158(r2)
  if (d->_g47) {
  804d04:	e0bffc17 	ldw	r2,-16(fp)
  804d08:	10802783 	ldbu	r2,158(r2)
  804d0c:	10803fcc 	andi	r2,r2,255
  804d10:	1080201c 	xori	r2,r2,128
  804d14:	10bfe004 	addi	r2,r2,-128
  804d18:	10003426 	beq	r2,zero,804dec <logic+0x3c1c>
    d->sleepT = (d->sleepT < (d->PVARP - d->PVARP_Clock)) ? d->sleepT : (d->PVARP - d->PVARP_Clock);
  804d1c:	e0bffc17 	ldw	r2,-16(fp)
  804d20:	14001b17 	ldw	r16,108(r2)
  804d24:	14401c17 	ldw	r17,112(r2)
  804d28:	e0bffc17 	ldw	r2,-16(fp)
  804d2c:	10800217 	ldw	r2,8(r2)
  804d30:	1009883a 	mov	r4,r2
  804d34:	08068dc0 	call	8068dc <__floatsidf>
  804d38:	1011883a 	mov	r8,r2
  804d3c:	1813883a 	mov	r9,r3
  804d40:	e13ffc17 	ldw	r4,-16(fp)
  804d44:	20800e17 	ldw	r2,56(r4)
  804d48:	20c00f17 	ldw	r3,60(r4)
  804d4c:	100d883a 	mov	r6,r2
  804d50:	180f883a 	mov	r7,r3
  804d54:	4009883a 	mov	r4,r8
  804d58:	480b883a 	mov	r5,r9
  804d5c:	0805fe00 	call	805fe0 <__subdf3>
  804d60:	1009883a 	mov	r4,r2
  804d64:	180b883a 	mov	r5,r3
  804d68:	2005883a 	mov	r2,r4
  804d6c:	2807883a 	mov	r3,r5
  804d70:	100d883a 	mov	r6,r2
  804d74:	180f883a 	mov	r7,r3
  804d78:	8009883a 	mov	r4,r16
  804d7c:	880b883a 	mov	r5,r17
  804d80:	0805eec0 	call	805eec <__ledf2>
  804d84:	1000040e 	bge	r2,zero,804d98 <logic+0x3bc8>
  804d88:	e13ffc17 	ldw	r4,-16(fp)
  804d8c:	20801b17 	ldw	r2,108(r4)
  804d90:	20c01c17 	ldw	r3,112(r4)
  804d94:	00001206 	br	804de0 <logic+0x3c10>
  804d98:	e0bffc17 	ldw	r2,-16(fp)
  804d9c:	10800217 	ldw	r2,8(r2)
  804da0:	1009883a 	mov	r4,r2
  804da4:	08068dc0 	call	8068dc <__floatsidf>
  804da8:	1011883a 	mov	r8,r2
  804dac:	1813883a 	mov	r9,r3
  804db0:	e13ffc17 	ldw	r4,-16(fp)
  804db4:	20800e17 	ldw	r2,56(r4)
  804db8:	20c00f17 	ldw	r3,60(r4)
  804dbc:	100d883a 	mov	r6,r2
  804dc0:	180f883a 	mov	r7,r3
  804dc4:	4009883a 	mov	r4,r8
  804dc8:	480b883a 	mov	r5,r9
  804dcc:	0805fe00 	call	805fe0 <__subdf3>
  804dd0:	1009883a 	mov	r4,r2
  804dd4:	180b883a 	mov	r5,r3
  804dd8:	2005883a 	mov	r2,r4
  804ddc:	2807883a 	mov	r3,r5
  804de0:	e13ffc17 	ldw	r4,-16(fp)
  804de4:	20801b15 	stw	r2,108(r4)
  804de8:	20c01c15 	stw	r3,112(r4)
  }
  d->_cg73 = d->_Pacemaker_local__Atrig || d->_Pacemaker_local__Atrig1 || d->_Pacemaker_local__Atrig2;
  804dec:	e0bffc17 	ldw	r2,-16(fp)
  804df0:	10801e03 	ldbu	r2,120(r2)
  804df4:	10803fcc 	andi	r2,r2,255
  804df8:	1080201c 	xori	r2,r2,128
  804dfc:	10bfe004 	addi	r2,r2,-128
  804e00:	10000c1e 	bne	r2,zero,804e34 <logic+0x3c64>
  804e04:	e0bffc17 	ldw	r2,-16(fp)
  804e08:	10801e43 	ldbu	r2,121(r2)
  804e0c:	10803fcc 	andi	r2,r2,255
  804e10:	1080201c 	xori	r2,r2,128
  804e14:	10bfe004 	addi	r2,r2,-128
  804e18:	1000061e 	bne	r2,zero,804e34 <logic+0x3c64>
  804e1c:	e0bffc17 	ldw	r2,-16(fp)
  804e20:	10801e83 	ldbu	r2,122(r2)
  804e24:	10803fcc 	andi	r2,r2,255
  804e28:	1080201c 	xori	r2,r2,128
  804e2c:	10bfe004 	addi	r2,r2,-128
  804e30:	10000226 	beq	r2,zero,804e3c <logic+0x3c6c>
  804e34:	00800044 	movi	r2,1
  804e38:	00000106 	br	804e40 <logic+0x3c70>
  804e3c:	0005883a 	mov	r2,zero
  804e40:	1007883a 	mov	r3,r2
  804e44:	e0bffc17 	ldw	r2,-16(fp)
  804e48:	10c03a85 	stb	r3,234(r2)
  d->_g55 = d->_g47 && !d->_cg73 || d->_g75 && !d->_cg77;
  804e4c:	e0bffc17 	ldw	r2,-16(fp)
  804e50:	10802783 	ldbu	r2,158(r2)
  804e54:	10803fcc 	andi	r2,r2,255
  804e58:	1080201c 	xori	r2,r2,128
  804e5c:	10bfe004 	addi	r2,r2,-128
  804e60:	10000626 	beq	r2,zero,804e7c <logic+0x3cac>
  804e64:	e0bffc17 	ldw	r2,-16(fp)
  804e68:	10803a83 	ldbu	r2,234(r2)
  804e6c:	10803fcc 	andi	r2,r2,255
  804e70:	1080201c 	xori	r2,r2,128
  804e74:	10bfe004 	addi	r2,r2,-128
  804e78:	10000c26 	beq	r2,zero,804eac <logic+0x3cdc>
  804e7c:	e0bffc17 	ldw	r2,-16(fp)
  804e80:	10802b83 	ldbu	r2,174(r2)
  804e84:	10803fcc 	andi	r2,r2,255
  804e88:	1080201c 	xori	r2,r2,128
  804e8c:	10bfe004 	addi	r2,r2,-128
  804e90:	10000826 	beq	r2,zero,804eb4 <logic+0x3ce4>
  804e94:	e0bffc17 	ldw	r2,-16(fp)
  804e98:	10803ac3 	ldbu	r2,235(r2)
  804e9c:	10803fcc 	andi	r2,r2,255
  804ea0:	1080201c 	xori	r2,r2,128
  804ea4:	10bfe004 	addi	r2,r2,-128
  804ea8:	1000021e 	bne	r2,zero,804eb4 <logic+0x3ce4>
  804eac:	00800044 	movi	r2,1
  804eb0:	00000106 	br	804eb8 <logic+0x3ce8>
  804eb4:	0005883a 	mov	r2,zero
  804eb8:	1007883a 	mov	r3,r2
  804ebc:	e0bffc17 	ldw	r2,-16(fp)
  804ec0:	10c02905 	stb	r3,164(r2)
  d->_g3 = d->_g33 && !d->_cg72;
  804ec4:	e0bffc17 	ldw	r2,-16(fp)
  804ec8:	10802503 	ldbu	r2,148(r2)
  804ecc:	10803fcc 	andi	r2,r2,255
  804ed0:	1080201c 	xori	r2,r2,128
  804ed4:	10bfe004 	addi	r2,r2,-128
  804ed8:	10000826 	beq	r2,zero,804efc <logic+0x3d2c>
  804edc:	e0bffc17 	ldw	r2,-16(fp)
  804ee0:	10803a43 	ldbu	r2,233(r2)
  804ee4:	10803fcc 	andi	r2,r2,255
  804ee8:	1080201c 	xori	r2,r2,128
  804eec:	10bfe004 	addi	r2,r2,-128
  804ef0:	1000021e 	bne	r2,zero,804efc <logic+0x3d2c>
  804ef4:	00800044 	movi	r2,1
  804ef8:	00000106 	br	804f00 <logic+0x3d30>
  804efc:	0005883a 	mov	r2,zero
  804f00:	1007883a 	mov	r3,r2
  804f04:	e0bffc17 	ldw	r2,-16(fp)
  804f08:	10c01f85 	stb	r3,126(r2)
  d->_cg82 = d->_Pacemaker_local__Atrig || d->_Pacemaker_local__Atrig1 || d->_Pacemaker_local__Atrig2;
  804f0c:	e0bffc17 	ldw	r2,-16(fp)
  804f10:	10801e03 	ldbu	r2,120(r2)
  804f14:	10803fcc 	andi	r2,r2,255
  804f18:	1080201c 	xori	r2,r2,128
  804f1c:	10bfe004 	addi	r2,r2,-128
  804f20:	10000c1e 	bne	r2,zero,804f54 <logic+0x3d84>
  804f24:	e0bffc17 	ldw	r2,-16(fp)
  804f28:	10801e43 	ldbu	r2,121(r2)
  804f2c:	10803fcc 	andi	r2,r2,255
  804f30:	1080201c 	xori	r2,r2,128
  804f34:	10bfe004 	addi	r2,r2,-128
  804f38:	1000061e 	bne	r2,zero,804f54 <logic+0x3d84>
  804f3c:	e0bffc17 	ldw	r2,-16(fp)
  804f40:	10801e83 	ldbu	r2,122(r2)
  804f44:	10803fcc 	andi	r2,r2,255
  804f48:	1080201c 	xori	r2,r2,128
  804f4c:	10bfe004 	addi	r2,r2,-128
  804f50:	10000226 	beq	r2,zero,804f5c <logic+0x3d8c>
  804f54:	00800044 	movi	r2,1
  804f58:	00000106 	br	804f60 <logic+0x3d90>
  804f5c:	0005883a 	mov	r2,zero
  804f60:	1007883a 	mov	r3,r2
  804f64:	e0bffc17 	ldw	r2,-16(fp)
  804f68:	10c03b85 	stb	r3,238(r2)
  d->_g57 = d->_g76 && !d->_cg79 || d->_g3 && !d->_cg82;
  804f6c:	e0bffc17 	ldw	r2,-16(fp)
  804f70:	10802bc3 	ldbu	r2,175(r2)
  804f74:	10803fcc 	andi	r2,r2,255
  804f78:	1080201c 	xori	r2,r2,128
  804f7c:	10bfe004 	addi	r2,r2,-128
  804f80:	10000626 	beq	r2,zero,804f9c <logic+0x3dcc>
  804f84:	e0bffc17 	ldw	r2,-16(fp)
  804f88:	10803b43 	ldbu	r2,237(r2)
  804f8c:	10803fcc 	andi	r2,r2,255
  804f90:	1080201c 	xori	r2,r2,128
  804f94:	10bfe004 	addi	r2,r2,-128
  804f98:	10000c26 	beq	r2,zero,804fcc <logic+0x3dfc>
  804f9c:	e0bffc17 	ldw	r2,-16(fp)
  804fa0:	10801f83 	ldbu	r2,126(r2)
  804fa4:	10803fcc 	andi	r2,r2,255
  804fa8:	1080201c 	xori	r2,r2,128
  804fac:	10bfe004 	addi	r2,r2,-128
  804fb0:	10000826 	beq	r2,zero,804fd4 <logic+0x3e04>
  804fb4:	e0bffc17 	ldw	r2,-16(fp)
  804fb8:	10803b83 	ldbu	r2,238(r2)
  804fbc:	10803fcc 	andi	r2,r2,255
  804fc0:	1080201c 	xori	r2,r2,128
  804fc4:	10bfe004 	addi	r2,r2,-128
  804fc8:	1000021e 	bne	r2,zero,804fd4 <logic+0x3e04>
  804fcc:	00800044 	movi	r2,1
  804fd0:	00000106 	br	804fd8 <logic+0x3e08>
  804fd4:	0005883a 	mov	r2,zero
  804fd8:	1007883a 	mov	r3,r2
  804fdc:	e0bffc17 	ldw	r2,-16(fp)
  804fe0:	10c02985 	stb	r3,166(r2)
  d->_g97 = d->_g33 || d->_g88 && !d->_cg90;
  804fe4:	e0bffc17 	ldw	r2,-16(fp)
  804fe8:	10802503 	ldbu	r2,148(r2)
  804fec:	10803fcc 	andi	r2,r2,255
  804ff0:	1080201c 	xori	r2,r2,128
  804ff4:	10bfe004 	addi	r2,r2,-128
  804ff8:	10000c1e 	bne	r2,zero,80502c <logic+0x3e5c>
  804ffc:	e0bffc17 	ldw	r2,-16(fp)
  805000:	10802d43 	ldbu	r2,181(r2)
  805004:	10803fcc 	andi	r2,r2,255
  805008:	1080201c 	xori	r2,r2,128
  80500c:	10bfe004 	addi	r2,r2,-128
  805010:	10000826 	beq	r2,zero,805034 <logic+0x3e64>
  805014:	e0bffc17 	ldw	r2,-16(fp)
  805018:	10803bc3 	ldbu	r2,239(r2)
  80501c:	10803fcc 	andi	r2,r2,255
  805020:	1080201c 	xori	r2,r2,128
  805024:	10bfe004 	addi	r2,r2,-128
  805028:	1000021e 	bne	r2,zero,805034 <logic+0x3e64>
  80502c:	00800044 	movi	r2,1
  805030:	00000106 	br	805038 <logic+0x3e68>
  805034:	0005883a 	mov	r2,zero
  805038:	1007883a 	mov	r3,r2
  80503c:	e0bffc17 	ldw	r2,-16(fp)
  805040:	10c02f45 	stb	r3,189(r2)
  d->_g99 = d->_GO || d->_g107;
  805044:	e0bffc17 	ldw	r2,-16(fp)
  805048:	10803183 	ldbu	r2,198(r2)
  80504c:	10803fcc 	andi	r2,r2,255
  805050:	1080201c 	xori	r2,r2,128
  805054:	10bfe004 	addi	r2,r2,-128
  805058:	1000061e 	bne	r2,zero,805074 <logic+0x3ea4>
  80505c:	e0bffc17 	ldw	r2,-16(fp)
  805060:	10803003 	ldbu	r2,192(r2)
  805064:	10803fcc 	andi	r2,r2,255
  805068:	1080201c 	xori	r2,r2,128
  80506c:	10bfe004 	addi	r2,r2,-128
  805070:	10000226 	beq	r2,zero,80507c <logic+0x3eac>
  805074:	00800044 	movi	r2,1
  805078:	00000106 	br	805080 <logic+0x3eb0>
  80507c:	0005883a 	mov	r2,zero
  805080:	1007883a 	mov	r3,r2
  805084:	e0bffc17 	ldw	r2,-16(fp)
  805088:	10c02fc5 	stb	r3,191(r2)
  d->_g58 = d->_GO || d->_g111;
  80508c:	e0bffc17 	ldw	r2,-16(fp)
  805090:	10803183 	ldbu	r2,198(r2)
  805094:	10803fcc 	andi	r2,r2,255
  805098:	1080201c 	xori	r2,r2,128
  80509c:	10bfe004 	addi	r2,r2,-128
  8050a0:	1000061e 	bne	r2,zero,8050bc <logic+0x3eec>
  8050a4:	e0bffc17 	ldw	r2,-16(fp)
  8050a8:	10803043 	ldbu	r2,193(r2)
  8050ac:	10803fcc 	andi	r2,r2,255
  8050b0:	1080201c 	xori	r2,r2,128
  8050b4:	10bfe004 	addi	r2,r2,-128
  8050b8:	10000226 	beq	r2,zero,8050c4 <logic+0x3ef4>
  8050bc:	00800044 	movi	r2,1
  8050c0:	00000106 	br	8050c8 <logic+0x3ef8>
  8050c4:	0005883a 	mov	r2,zero
  8050c8:	1007883a 	mov	r3,r2
  8050cc:	e0bffc17 	ldw	r2,-16(fp)
  8050d0:	10c029c5 	stb	r3,167(r2)
  d->_g94 = d->_GO || d->_g115;
  8050d4:	e0bffc17 	ldw	r2,-16(fp)
  8050d8:	10803183 	ldbu	r2,198(r2)
  8050dc:	10803fcc 	andi	r2,r2,255
  8050e0:	1080201c 	xori	r2,r2,128
  8050e4:	10bfe004 	addi	r2,r2,-128
  8050e8:	1000061e 	bne	r2,zero,805104 <logic+0x3f34>
  8050ec:	e0bffc17 	ldw	r2,-16(fp)
